---
triple:          'arm64-apple-darwin'
binary-path:     'bin/pm-debug'
relocations:
  - { offsetInCU: 0x52, offset: 0x52, size: 0x8, addend: 0x0, symName: __ZL11WINDOW_NAME, symObjAddr: 0x56490, symBinAddr: 0x100020028, symSize: 0x0 }
  - { offsetInCU: 0xE269, offset: 0xE269, size: 0x8, addend: 0x0, symName: __ZNSt3__119__debug_db_insert_cB7v160006INS_12basic_stringIcNS_11char_traitsIcEENS_9allocatorIcEEEEEEvPT_, symObjAddr: 0xCD0, symBinAddr: 0x100003970, symSize: 0x10 }
  - { offsetInCU: 0xE29A, offset: 0xE29A, size: 0x8, addend: 0x0, symName: __ZNSt3__118__constexpr_strlenB7v160006EPKc, symObjAddr: 0xD9C, symBinAddr: 0x100003A3C, symSize: 0x24 }
  - { offsetInCU: 0x106C1, offset: 0x106C1, size: 0x8, addend: 0x0, symName: _debug_mode, symObjAddr: 0x564A8, symBinAddr: 0x100020040, symSize: 0x0 }
  - { offsetInCU: 0x106D6, offset: 0x106D6, size: 0x8, addend: 0x0, symName: _lastPoint, symObjAddr: 0x564AC, symBinAddr: 0x100020044, symSize: 0x0 }
  - { offsetInCU: 0x16249, offset: 0x16249, size: 0x8, addend: 0x0, symName: _currentMousePos, symObjAddr: 0x564B4, symBinAddr: 0x10002004C, symSize: 0x0 }
  - { offsetInCU: 0x1625E, offset: 0x1625E, size: 0x8, addend: 0x0, symName: _brushRadius, symObjAddr: 0x1118, symBinAddr: 0x100020000, symSize: 0x0 }
  - { offsetInCU: 0x16273, offset: 0x16273, size: 0x8, addend: 0x0, symName: _curr_mode, symObjAddr: 0x111C, symBinAddr: 0x100020004, symSize: 0x0 }
  - { offsetInCU: 0x162A8, offset: 0x162A8, size: 0x8, addend: 0x0, symName: _drawingLayer, symObjAddr: 0x564C0, symBinAddr: 0x100020058, symSize: 0x0 }
  - { offsetInCU: 0x16DF8, offset: 0x16DF8, size: 0x8, addend: 0x0, symName: _n_levels, symObjAddr: 0x56520, symBinAddr: 0x1000200B8, symSize: 0x0 }
  - { offsetInCU: 0x16E0D, offset: 0x16E0D, size: 0x8, addend: 0x0, symName: _patch_size, symObjAddr: 0x56524, symBinAddr: 0x1000200BC, symSize: 0x0 }
  - { offsetInCU: 0x16E22, offset: 0x16E22, size: 0x8, addend: 0x0, symName: _lambda, symObjAddr: 0x56528, symBinAddr: 0x1000200C0, symSize: 0x0 }
  - { offsetInCU: 0x16E37, offset: 0x16E37, size: 0x8, addend: 0x0, symName: _minimum_levels, symObjAddr: 0x1120, symBinAddr: 0x100020008, symSize: 0x0 }
  - { offsetInCU: 0x16E4C, offset: 0x16E4C, size: 0x8, addend: 0x0, symName: _minimum_patch_size, symObjAddr: 0x1124, symBinAddr: 0x10002000C, symSize: 0x0 }
  - { offsetInCU: 0x16E61, offset: 0x16E61, size: 0x8, addend: 0x0, symName: _minimum_lambda, symObjAddr: 0x1128, symBinAddr: 0x100020010, symSize: 0x0 }
  - { offsetInCU: 0x19909, offset: 0x19909, size: 0x8, addend: 0x0, symName: __ZNSt3__112basic_stringIcNS_11char_traitsIcEENS_9allocatorIcEEEC1B7v160006IDnEEPKc, symObjAddr: 0x0, symBinAddr: 0x100002CA0, symSize: 0x34 }
  - { offsetInCU: 0x19947, offset: 0x19947, size: 0x8, addend: 0x0, symName: __ZN2cv6Point_IiEC1Eii, symObjAddr: 0x34, symBinAddr: 0x100002CD4, symSize: 0x3C }
  - { offsetInCU: 0x1998F, offset: 0x1998F, size: 0x8, addend: 0x0, symName: __Z7onMouseiiiiPv, symObjAddr: 0x70, symBinAddr: 0x100002D10, symSize: 0x208 }
  - { offsetInCU: 0x19A07, offset: 0x19A07, size: 0x8, addend: 0x0, symName: __ZN2cv7Scalar_IdEC1Edddd, symObjAddr: 0x278, symBinAddr: 0x100002F18, symSize: 0x4C }
  - { offsetInCU: 0x19A78, offset: 0x19A78, size: 0x8, addend: 0x0, symName: __ZN2cv17_InputOutputArrayC1ERNS_3MatE, symObjAddr: 0x2C4, symBinAddr: 0x100002F64, symSize: 0x34 }
  - { offsetInCU: 0x19AB5, offset: 0x19AB5, size: 0x8, addend: 0x0, symName: __ZN2cv17_InputOutputArrayD1Ev, symObjAddr: 0x2F8, symBinAddr: 0x100002F98, symSize: 0x2C }
  - { offsetInCU: 0x19AE1, offset: 0x19AE1, size: 0x8, addend: 0x0, symName: __Z14onLevelsChangeiPv, symObjAddr: 0x324, symBinAddr: 0x100002FC4, symSize: 0x2C }
  - { offsetInCU: 0x19B17, offset: 0x19B17, size: 0x8, addend: 0x0, symName: __Z17onPatchSizeChangeiPv, symObjAddr: 0x350, symBinAddr: 0x100002FF0, symSize: 0x2C }
  - { offsetInCU: 0x19B4D, offset: 0x19B4D, size: 0x8, addend: 0x0, symName: __Z14onLambdaChangeiPv, symObjAddr: 0x37C, symBinAddr: 0x10000301C, symSize: 0x2C }
  - { offsetInCU: 0x19B84, offset: 0x19B84, size: 0x8, addend: 0x0, symName: _main, symObjAddr: 0x3A8, symBinAddr: 0x100003048, symSize: 0x4B0 }
  - { offsetInCU: 0x19C69, offset: 0x19C69, size: 0x8, addend: 0x0, symName: __ZN2cv11_InputArrayC1ERKNS_3MatE, symObjAddr: 0x858, symBinAddr: 0x1000034F8, symSize: 0x34 }
  - { offsetInCU: 0x19CA3, offset: 0x19CA3, size: 0x8, addend: 0x0, symName: __ZN2cv12_OutputArrayC1ERNS_3MatE, symObjAddr: 0x88C, symBinAddr: 0x10000352C, symSize: 0x34 }
  - { offsetInCU: 0x19CDD, offset: 0x19CDD, size: 0x8, addend: 0x0, symName: __ZN2cv12_OutputArrayD1Ev, symObjAddr: 0x8C0, symBinAddr: 0x100003560, symSize: 0x2C }
  - { offsetInCU: 0x19D0A, offset: 0x19D0A, size: 0x8, addend: 0x0, symName: __ZN2cv11_InputArrayD1Ev, symObjAddr: 0x8EC, symBinAddr: 0x10000358C, symSize: 0x2C }
  - { offsetInCU: 0x19DC0, offset: 0x19DC0, size: 0x8, addend: 0x0, symName: __ZN16PatchMatchParamsC1Ev, symObjAddr: 0x918, symBinAddr: 0x1000035B8, symSize: 0x2C }
  - { offsetInCU: 0x19DE9, offset: 0x19DE9, size: 0x8, addend: 0x0, symName: __ZN2cv17_InputOutputArrayC2ERNS_3MatE, symObjAddr: 0x944, symBinAddr: 0x1000035E4, symSize: 0x68 }
  - { offsetInCU: 0x19E26, offset: 0x19E26, size: 0x8, addend: 0x0, symName: __ZN2cv12_OutputArrayC2Ev, symObjAddr: 0x9AC, symBinAddr: 0x10000364C, symSize: 0x64 }
  - { offsetInCU: 0x19E52, offset: 0x19E52, size: 0x8, addend: 0x0, symName: __ZN2cv11_InputArray4initEiPKv, symObjAddr: 0xA10, symBinAddr: 0x1000036B0, symSize: 0x2C }
  - { offsetInCU: 0x19E96, offset: 0x19E96, size: 0x8, addend: 0x0, symName: __ZN2cv12_OutputArrayD2Ev, symObjAddr: 0xA3C, symBinAddr: 0x1000036DC, symSize: 0x2C }
  - { offsetInCU: 0x19EC3, offset: 0x19EC3, size: 0x8, addend: 0x0, symName: __ZN2cv11_InputArrayC2Ev, symObjAddr: 0xA68, symBinAddr: 0x100003708, symSize: 0x40 }
  - { offsetInCU: 0x19EEF, offset: 0x19EEF, size: 0x8, addend: 0x0, symName: __ZN2cv11_InputArrayD2Ev, symObjAddr: 0xAA8, symBinAddr: 0x100003748, symSize: 0x14 }
  - { offsetInCU: 0x19F1B, offset: 0x19F1B, size: 0x8, addend: 0x0, symName: __ZN2cv5Size_IiEC1Ev, symObjAddr: 0xABC, symBinAddr: 0x10000375C, symSize: 0x2C }
  - { offsetInCU: 0x19F47, offset: 0x19F47, size: 0x8, addend: 0x0, symName: __ZN2cv5Size_IiEC2Ev, symObjAddr: 0xAE8, symBinAddr: 0x100003788, symSize: 0x1C }
  - { offsetInCU: 0x19F73, offset: 0x19F73, size: 0x8, addend: 0x0, symName: __ZN2cv17_InputOutputArrayD2Ev, symObjAddr: 0xB04, symBinAddr: 0x1000037A4, symSize: 0x2C }
  - { offsetInCU: 0x19FA0, offset: 0x19FA0, size: 0x8, addend: 0x0, symName: __ZN2cv11_InputArrayC2ERKNS_3MatE, symObjAddr: 0xB30, symBinAddr: 0x1000037D0, symSize: 0x44 }
  - { offsetInCU: 0x19FDA, offset: 0x19FDA, size: 0x8, addend: 0x0, symName: __ZN2cv12_OutputArrayC2ERNS_3MatE, symObjAddr: 0xB74, symBinAddr: 0x100003814, symSize: 0x40 }
  - { offsetInCU: 0x1A014, offset: 0x1A014, size: 0x8, addend: 0x0, symName: __ZN16PatchMatchParamsC2Ev, symObjAddr: 0xBB4, symBinAddr: 0x100003854, symSize: 0x4C }
  - { offsetInCU: 0x1A03E, offset: 0x1A03E, size: 0x8, addend: 0x0, symName: __ZNSt3__112basic_stringIcNS_11char_traitsIcEENS_9allocatorIcEEEC2B7v160006IDnEEPKc, symObjAddr: 0xC00, symBinAddr: 0x1000038A0, symSize: 0x60 }
  - { offsetInCU: 0x1A081, offset: 0x1A081, size: 0x8, addend: 0x0, symName: __ZNSt3__117__compressed_pairINS_12basic_stringIcNS_11char_traitsIcEENS_9allocatorIcEEE5__repES5_EC1B7v160006INS_18__default_init_tagESA_EEOT_OT0_, symObjAddr: 0xC60, symBinAddr: 0x100003900, symSize: 0x3C }
  - { offsetInCU: 0x1A0D8, offset: 0x1A0D8, size: 0x8, addend: 0x0, symName: __ZNSt3__111char_traitsIcE6lengthEPKc, symObjAddr: 0xC9C, symBinAddr: 0x10000393C, symSize: 0x34 }
  - { offsetInCU: 0x1A0FB, offset: 0x1A0FB, size: 0x8, addend: 0x0, symName: __ZNSt3__117__compressed_pairINS_12basic_stringIcNS_11char_traitsIcEENS_9allocatorIcEEE5__repES5_EC2B7v160006INS_18__default_init_tagESA_EEOT_OT0_, symObjAddr: 0xCE0, symBinAddr: 0x100003980, symSize: 0x3C }
  - { offsetInCU: 0x1A152, offset: 0x1A152, size: 0x8, addend: 0x0, symName: __ZNSt3__122__compressed_pair_elemINS_12basic_stringIcNS_11char_traitsIcEENS_9allocatorIcEEE5__repELi0ELb0EEC2B7v160006ENS_18__default_init_tagE, symObjAddr: 0xD1C, symBinAddr: 0x1000039BC, symSize: 0x14 }
  - { offsetInCU: 0x1A187, offset: 0x1A187, size: 0x8, addend: 0x0, symName: __ZNSt3__122__compressed_pair_elemINS_9allocatorIcEELi1ELb1EEC2B7v160006ENS_18__default_init_tagE, symObjAddr: 0xD30, symBinAddr: 0x1000039D0, symSize: 0x2C }
  - { offsetInCU: 0x1A1BB, offset: 0x1A1BB, size: 0x8, addend: 0x0, symName: __ZNSt3__19allocatorIcEC2B7v160006Ev, symObjAddr: 0xD5C, symBinAddr: 0x1000039FC, symSize: 0x2C }
  - { offsetInCU: 0x1A1E4, offset: 0x1A1E4, size: 0x8, addend: 0x0, symName: __ZNSt3__116__non_trivial_ifILb1ENS_9allocatorIcEEEC2B7v160006Ev, symObjAddr: 0xD88, symBinAddr: 0x100003A28, symSize: 0x14 }
  - { offsetInCU: 0x1A20E, offset: 0x1A20E, size: 0x8, addend: 0x0, symName: __ZN2cv6Point_IiEC2Eii, symObjAddr: 0xDCC, symBinAddr: 0x100003A6C, symSize: 0x2C }
  - { offsetInCU: 0x1A256, offset: 0x1A256, size: 0x8, addend: 0x0, symName: __ZN2cv7Scalar_IdEC2Edddd, symObjAddr: 0xDF8, symBinAddr: 0x100003A98, symSize: 0x5C }
  - { offsetInCU: 0x1A2C2, offset: 0x1A2C2, size: 0x8, addend: 0x0, symName: __ZN2cv3VecIdLi4EEC2Ev, symObjAddr: 0xE54, symBinAddr: 0x100003AF4, symSize: 0x2C }
  - { offsetInCU: 0x1A2EE, offset: 0x1A2EE, size: 0x8, addend: 0x0, symName: __ZN2cv4MatxIdLi4ELi1EEC2Ev, symObjAddr: 0xE80, symBinAddr: 0x100003B20, symSize: 0x60 }
  - { offsetInCU: 0xE1, offset: 0x1A89D, size: 0x8, addend: 0x0, symName: __ZN10CycleTimer14secondsPerTickEv, symObjAddr: 0x9C68, symBinAddr: 0x10000D544, symSize: 0x8C }
  - { offsetInCU: 0x101, offset: 0x1A8BD, size: 0x8, addend: 0x0, symName: __ZZN10CycleTimer14secondsPerTickEvE11initialized, symObjAddr: 0x178D0, symBinAddr: 0x100020018, symSize: 0x0 }
  - { offsetInCU: 0x116, offset: 0x1A8D2, size: 0x8, addend: 0x0, symName: __ZZN10CycleTimer14secondsPerTickEvE18secondsPerTick_val, symObjAddr: 0x178D8, symBinAddr: 0x100020020, symSize: 0x0 }
  - { offsetInCU: 0x14C, offset: 0x1A908, size: 0x8, addend: 0x0, symName: __ZNSt3__17nulloptE, symObjAddr: 0x178CA, symBinAddr: 0x10001A118, symSize: 0x0 }
  - { offsetInCU: 0x19E, offset: 0x1A95A, size: 0x8, addend: 0x0, symName: __ZNSt3__18in_placeE, symObjAddr: 0x178CB, symBinAddr: 0x10001A119, symSize: 0x0 }
  - { offsetInCU: 0xB211, offset: 0x259CD, size: 0x8, addend: 0x0, symName: __ZNSt3__124__put_character_sequenceB7v160006IcNS_11char_traitsIcEEEERNS_13basic_ostreamIT_T0_EES7_PKS4_m, symObjAddr: 0xBEAC, symBinAddr: 0x10000F4E8, symSize: 0x1EC }
  - { offsetInCU: 0x106B8, offset: 0x2AE74, size: 0x8, addend: 0x0, symName: __ZNSt3__1plB7v160006IcNS_11char_traitsIcEENS_9allocatorIcEEEENS_12basic_stringIT_T0_T1_EEPKS6_OS9_, symObjAddr: 0x3148, symBinAddr: 0x100006BFC, symSize: 0x44 }
  - { offsetInCU: 0x10713, offset: 0x2AECF, size: 0x8, addend: 0x0, symName: __ZNSt3__1neB7v160006INS_17reference_wrapperIN2cv3MatEEEEEbRKNS_8optionalIT_EENS_9nullopt_tE, symObjAddr: 0x3FB8, symBinAddr: 0x100007A6C, symSize: 0x28 }
  - { offsetInCU: 0x10758, offset: 0x2AF14, size: 0x8, addend: 0x0, symName: __ZNSt3__1eqB7v160006INS_17reference_wrapperIN2cv3MatEEEEEbRKNS_8optionalIT_EENS_9nullopt_tE, symObjAddr: 0x401C, symBinAddr: 0x100007AD0, symSize: 0x2C }
  - { offsetInCU: 0x1079D, offset: 0x2AF59, size: 0x8, addend: 0x0, symName: __ZNSt3__1lsB7v160006IcNS_11char_traitsIcEENS_9allocatorIcEEEERNS_13basic_ostreamIT_T0_EES9_RKNS_12basic_stringIS6_S7_T1_EE, symObjAddr: 0x40F8, symBinAddr: 0x100007BAC, symSize: 0x4C }
  - { offsetInCU: 0x107F8, offset: 0x2AFB4, size: 0x8, addend: 0x0, symName: __ZNSt3__1lsB7v160006INS_11char_traitsIcEEEERNS_13basic_ostreamIcT_EES6_PKc, symObjAddr: 0x4144, symBinAddr: 0x100007BF8, symSize: 0x48 }
  - { offsetInCU: 0x10841, offset: 0x2AFFD, size: 0x8, addend: 0x0, symName: __ZNSt3__14endlB7v160006IcNS_11char_traitsIcEEEERNS_13basic_ostreamIT_T0_EES7_, symObjAddr: 0x41B8, symBinAddr: 0x100007C6C, symSize: 0x58 }
  - { offsetInCU: 0x10883, offset: 0x2B03F, size: 0x8, addend: 0x0, symName: __ZNSt3__111nth_elementB7v160006INS_11__wrap_iterIPdEEEEvT_S4_S4_, symObjAddr: 0x5678, symBinAddr: 0x10000912C, symSize: 0x4C }
  - { offsetInCU: 0x108D1, offset: 0x2B08D, size: 0x8, addend: 0x0, symName: __ZNSt3__13maxB7v160006IdEERKT_S3_S3_, symObjAddr: 0x5760, symBinAddr: 0x100009214, symSize: 0x2C }
  - { offsetInCU: 0x10914, offset: 0x2B0D0, size: 0x8, addend: 0x0, symName: __ZNSt3__13maxB7v160006ImEERKT_S3_S3_, symObjAddr: 0x6F1C, symBinAddr: 0x10000A9D0, symSize: 0x2C }
  - { offsetInCU: 0x10957, offset: 0x2B113, size: 0x8, addend: 0x0, symName: __ZNSt3__14swapB7v160006IPN2cv3MatEEENS_9enable_ifIXaasr21is_move_constructibleIT_EE5valuesr18is_move_assignableIS5_EE5valueEvE4typeERS5_S8_, symObjAddr: 0x6FEC, symBinAddr: 0x10000AAA0, symSize: 0x3C }
  - { offsetInCU: 0x109AA, offset: 0x2B166, size: 0x8, addend: 0x0, symName: __ZNSt3__13minB7v160006IiEERKT_S3_S3_, symObjAddr: 0x7184, symBinAddr: 0x10000AC38, symSize: 0x2C }
  - { offsetInCU: 0x109ED, offset: 0x2B1A9, size: 0x8, addend: 0x0, symName: __ZNSt3__13maxB7v160006IiEERKT_S3_S3_, symObjAddr: 0x71B0, symBinAddr: 0x10000AC64, symSize: 0x2C }
  - { offsetInCU: 0x10A30, offset: 0x2B1EC, size: 0x8, addend: 0x0, symName: __ZNSt3__13refB7v160006IN2cv3MatEEENS_17reference_wrapperIT_EERS4_, symObjAddr: 0x82F4, symBinAddr: 0x10000BDA8, symSize: 0x2C }
  - { offsetInCU: 0x10A65, offset: 0x2B221, size: 0x8, addend: 0x0, symName: __ZNSt3__13maxB7v160006IdNS_6__lessIddEEEERKT_S5_S5_T0_, symObjAddr: 0xA140, symBinAddr: 0x10000DA1C, symSize: 0x54 }
  - { offsetInCU: 0x10AFA, offset: 0x2B2B6, size: 0x8, addend: 0x0, symName: __ZNSt3__13maxB7v160006ImNS_6__lessImmEEEERKT_S5_S5_T0_, symObjAddr: 0xA250, symBinAddr: 0x10000DB2C, symSize: 0x54 }
  - { offsetInCU: 0x10B8F, offset: 0x2B34B, size: 0x8, addend: 0x0, symName: __ZNSt3__13minB7v160006IiNS_6__lessIiiEEEERKT_S5_S5_T0_, symObjAddr: 0xA2D8, symBinAddr: 0x10000DBB4, symSize: 0x54 }
  - { offsetInCU: 0x10C24, offset: 0x2B3E0, size: 0x8, addend: 0x0, symName: __ZNSt3__13maxB7v160006IiNS_6__lessIiiEEEERKT_S5_S5_T0_, symObjAddr: 0xA360, symBinAddr: 0x10000DC3C, symSize: 0x54 }
  - { offsetInCU: 0x10C7E, offset: 0x2B43A, size: 0x8, addend: 0x0, symName: __ZNSt3__110accumulateB7v160006INS_11__wrap_iterIPdEEfEET0_T_S5_S4_, symObjAddr: 0xA6C0, symBinAddr: 0x10000DF9C, symSize: 0x78 }
  - { offsetInCU: 0x10CD8, offset: 0x2B494, size: 0x8, addend: 0x0, symName: __ZNSt3__1neB7v160006IPdEEbRKNS_11__wrap_iterIT_EES6_, symObjAddr: 0xA738, symBinAddr: 0x10000E014, symSize: 0x34 }
  - { offsetInCU: 0x10D1B, offset: 0x2B4D7, size: 0x8, addend: 0x0, symName: __ZNSt3__1eqB7v160006IPdEEbRKNS_11__wrap_iterIT_EES6_, symObjAddr: 0xA7A4, symBinAddr: 0x10000E080, symSize: 0x48 }
  - { offsetInCU: 0x10D5E, offset: 0x2B51A, size: 0x8, addend: 0x0, symName: __ZNSt3__119__debug_db_insert_cB7v160006INS_6vectorINS1_IdNS_9allocatorIdEEEENS2_IS4_EEEEEEvPT_, symObjAddr: 0xA918, symBinAddr: 0x10000E1E8, symSize: 0x10 }
  - { offsetInCU: 0x10D8F, offset: 0x2B54B, size: 0x8, addend: 0x0, symName: __ZNSt3__115__debug_db_swapB7v160006INS_6vectorIdNS_9allocatorIdEEEEEEvPT_S6_, symObjAddr: 0xABE4, symBinAddr: 0x10000E4B4, symSize: 0x14 }
  - { offsetInCU: 0x10DCE, offset: 0x2B58A, size: 0x8, addend: 0x0, symName: __ZNSt3__125__debug_db_invalidate_allB7v160006INS_6vectorIdNS_9allocatorIdEEEEEEvPT_, symObjAddr: 0xADC4, symBinAddr: 0x10000E694, symSize: 0x10 }
  - { offsetInCU: 0x10DFF, offset: 0x2B5BB, size: 0x8, addend: 0x0, symName: __ZNSt3__112__to_addressB7v160006IdEEPT_S2_, symObjAddr: 0xAE8C, symBinAddr: 0x10000E75C, symSize: 0x14 }
  - { offsetInCU: 0x10E35, offset: 0x2B5F1, size: 0x8, addend: 0x0, symName: __ZNSt3__119__libcpp_deallocateB7v160006EPvmm, symObjAddr: 0xAF3C, symBinAddr: 0x10000E80C, symSize: 0x60 }
  - { offsetInCU: 0x10EA0, offset: 0x2B65C, size: 0x8, addend: 0x0, symName: __ZNSt3__124__is_overaligned_for_newB7v160006Em, symObjAddr: 0xAF9C, symBinAddr: 0x10000E86C, symSize: 0x20 }
  - { offsetInCU: 0x10ED0, offset: 0x2B68C, size: 0x8, addend: 0x0, symName: __ZNSt3__127__do_deallocate_handle_sizeB7v160006IJSt11align_val_tEEEvPvmDpT_, symObjAddr: 0xAFBC, symBinAddr: 0x10000E88C, symSize: 0x30 }
  - { offsetInCU: 0x10F28, offset: 0x2B6E4, size: 0x8, addend: 0x0, symName: __ZNSt3__127__do_deallocate_handle_sizeB7v160006IJEEEvPvmDpT_, symObjAddr: 0xAFEC, symBinAddr: 0x10000E8BC, symSize: 0x28 }
  - { offsetInCU: 0x10F6A, offset: 0x2B726, size: 0x8, addend: 0x0, symName: __ZNSt3__124__libcpp_operator_deleteB7v160006IJPvSt11align_val_tEEEvDpT_, symObjAddr: 0xB014, symBinAddr: 0x10000E8E4, symSize: 0x2C }
  - { offsetInCU: 0x10FB7, offset: 0x2B773, size: 0x8, addend: 0x0, symName: __ZNSt3__124__libcpp_operator_deleteB7v160006IJPvEEEvDpT_, symObjAddr: 0xB040, symBinAddr: 0x10000E910, symSize: 0x24 }
  - { offsetInCU: 0x10FEF, offset: 0x2B7AB, size: 0x8, addend: 0x0, symName: __ZNSt3__115__debug_db_swapB7v160006INS_6vectorINS1_IdNS_9allocatorIdEEEENS2_IS4_EEEEEEvPT_S8_, symObjAddr: 0xB2F8, symBinAddr: 0x10000EBC8, symSize: 0x14 }
  - { offsetInCU: 0x1102E, offset: 0x2B7EA, size: 0x8, addend: 0x0, symName: __ZNSt3__125__debug_db_invalidate_allB7v160006INS_6vectorINS1_IdNS_9allocatorIdEEEENS2_IS4_EEEEEEvPT_, symObjAddr: 0xB51C, symBinAddr: 0x10000EDEC, symSize: 0x10 }
  - { offsetInCU: 0x1105F, offset: 0x2B81B, size: 0x8, addend: 0x0, symName: __ZNSt3__112__to_addressB7v160006INS_6vectorIdNS_9allocatorIdEEEEEEPT_S6_, symObjAddr: 0xB5E4, symBinAddr: 0x10000EEB4, symSize: 0x14 }
  - { offsetInCU: 0x11095, offset: 0x2B851, size: 0x8, addend: 0x0, symName: __ZNSt3__118__debug_db_erase_cB7v160006INS_6vectorINS1_IdNS_9allocatorIdEEEENS2_IS4_EEEEEEvPT_, symObjAddr: 0xBA30, symBinAddr: 0x10000F300, symSize: 0x10 }
  - { offsetInCU: 0x110C6, offset: 0x2B882, size: 0x8, addend: 0x0, symName: __ZNSt3__116__pad_and_outputB7v160006IcNS_11char_traitsIcEEEENS_19ostreambuf_iteratorIT_T0_EES6_PKS4_S8_S8_RNS_8ios_baseES4_, symObjAddr: 0xC0B4, symBinAddr: 0x10000F6F0, symSize: 0x240 }
  - { offsetInCU: 0x111A1, offset: 0x2B95D, size: 0x8, addend: 0x0, symName: __ZNSt3__112__to_addressB7v160006IcEEPT_S2_, symObjAddr: 0xC52C, symBinAddr: 0x10000FB68, symSize: 0x14 }
  - { offsetInCU: 0x1120A, offset: 0x2B9C6, size: 0x8, addend: 0x0, symName: __ZNSt3__19use_facetB7v160006INS_5ctypeIcEEEERKT_RKNS_6localeE, symObjAddr: 0xC7E4, symBinAddr: 0x10000FE20, symSize: 0x2C }
  - { offsetInCU: 0x116DB, offset: 0x2BE97, size: 0x8, addend: 0x0, symName: __ZNSt3__112__to_addressB7v160006IKcEEPT_S3_, symObjAddr: 0xC8F8, symBinAddr: 0x10000FF34, symSize: 0x14 }
  - { offsetInCU: 0x11744, offset: 0x2BF00, size: 0x8, addend: 0x0, symName: __ZNSt3__119__debug_db_insert_cB7v160006INS_6vectorIiNS_9allocatorIiEEEEEEvPT_, symObjAddr: 0xCAB4, symBinAddr: 0x1000100F0, symSize: 0x10 }
  - { offsetInCU: 0x11775, offset: 0x2BF31, size: 0x8, addend: 0x0, symName: __ZNSt3__118__debug_db_erase_cB7v160006INS_6vectorIiNS_9allocatorIiEEEEEEvPT_, symObjAddr: 0xCD78, symBinAddr: 0x1000103B4, symSize: 0x10 }
  - { offsetInCU: 0x117A6, offset: 0x2BF62, size: 0x8, addend: 0x0, symName: __ZNSt3__112__to_addressB7v160006IiEEPT_S2_, symObjAddr: 0xCE94, symBinAddr: 0x1000104D0, symSize: 0x14 }
  - { offsetInCU: 0x117DC, offset: 0x2BF98, size: 0x8, addend: 0x0, symName: __ZNSt3__122__make_exception_guardB7v160006INS_6vectorIN2cv3MatENS_9allocatorIS3_EEE16__destroy_vectorEEENS_28__exception_guard_exceptionsIT_EES9_, symObjAddr: 0xD32C, symBinAddr: 0x1000108C0, symSize: 0x40 }
  - { offsetInCU: 0x11811, offset: 0x2BFCD, size: 0x8, addend: 0x0, symName: __ZNSt3__119__debug_db_insert_cB7v160006INS_6vectorIN2cv3MatENS_9allocatorIS3_EEEEEEvPT_, symObjAddr: 0xD3A0, symBinAddr: 0x100010934, symSize: 0x10 }
  - { offsetInCU: 0x11842, offset: 0x2BFFE, size: 0x8, addend: 0x0, symName: __ZNSt3__119__allocate_at_leastB7v160006INS_9allocatorIN2cv3MatEEEEENS_19__allocation_resultINS_16allocator_traitsIT_E7pointerEEERS7_m, symObjAddr: 0xD74C, symBinAddr: 0x100010CE0, symSize: 0x40 }
  - { offsetInCU: 0x11885, offset: 0x2C041, size: 0x8, addend: 0x0, symName: __ZNSt3__13minB7v160006ImEERKT_S3_S3_, symObjAddr: 0xD8A4, symBinAddr: 0x100010E38, symSize: 0x2C }
  - { offsetInCU: 0x11AB2, offset: 0x2C26E, size: 0x8, addend: 0x0, symName: __ZNSt3__13minB7v160006ImNS_6__lessImmEEEERKT_S5_S5_T0_, symObjAddr: 0xD930, symBinAddr: 0x100010EC4, symSize: 0x54 }
  - { offsetInCU: 0x11B0C, offset: 0x2C2C8, size: 0x8, addend: 0x0, symName: __ZNSt3__120__throw_length_errorB7v160006EPKc, symObjAddr: 0xD9DC, symBinAddr: 0x100010F70, symSize: 0x64 }
  - { offsetInCU: 0x11B35, offset: 0x2C2F1, size: 0x8, addend: 0x0, symName: __ZNSt3__117__libcpp_allocateB7v160006Emm, symObjAddr: 0xDB50, symBinAddr: 0x1000110E4, symSize: 0x60 }
  - { offsetInCU: 0x11B94, offset: 0x2C350, size: 0x8, addend: 0x0, symName: __ZNSt3__121__libcpp_operator_newB7v160006IJmSt11align_val_tEEEPvDpT_, symObjAddr: 0xDBB0, symBinAddr: 0x100011144, symSize: 0x2C }
  - { offsetInCU: 0x11BE5, offset: 0x2C3A1, size: 0x8, addend: 0x0, symName: __ZNSt3__121__libcpp_operator_newB7v160006IJmEEEPvDpT_, symObjAddr: 0xDBDC, symBinAddr: 0x100011170, symSize: 0x24 }
  - { offsetInCU: 0x11C21, offset: 0x2C3DD, size: 0x8, addend: 0x0, symName: __ZNSt3__112__to_addressB7v160006IN2cv3MatEEEPT_S4_, symObjAddr: 0xDCF8, symBinAddr: 0x10001128C, symSize: 0x14 }
  - { offsetInCU: 0x11C57, offset: 0x2C413, size: 0x8, addend: 0x0, symName: __ZNSt3__130__uninitialized_allocator_copyB7v160006INS_9allocatorIN2cv3MatEEEPKS3_S6_PS3_EET2_RT_T0_T1_S8_, symObjAddr: 0xDDA8, symBinAddr: 0x10001133C, symSize: 0xF4 }
  - { offsetInCU: 0x11CFC, offset: 0x2C4B8, size: 0x8, addend: 0x0, symName: __ZNSt3__122__make_exception_guardB7v160006INS_29_AllocatorDestroyRangeReverseINS_9allocatorIN2cv3MatEEEPS4_EEEENS_28__exception_guard_exceptionsIT_EES9_, symObjAddr: 0xDF14, symBinAddr: 0x1000114A8, symSize: 0x4C }
  - { offsetInCU: 0x11D32, offset: 0x2C4EE, size: 0x8, addend: 0x0, symName: __ZNSt3__119__allocator_destroyB7v160006INS_9allocatorIN2cv3MatEEENS_16reverse_iteratorIPS3_EES7_EEvRT_T0_T1_, symObjAddr: 0xE1A4, symBinAddr: 0x100011738, symSize: 0x70 }
  - { offsetInCU: 0x11D99, offset: 0x2C555, size: 0x8, addend: 0x0, symName: __ZNSt3__1neB7v160006IPN2cv3MatES3_EEbRKNS_16reverse_iteratorIT_EERKNS4_IT0_EE, symObjAddr: 0xE248, symBinAddr: 0x1000117DC, symSize: 0x48 }
  - { offsetInCU: 0x11DE5, offset: 0x2C5A1, size: 0x8, addend: 0x0, symName: __ZNSt3__112__to_addressB7v160006INS_16reverse_iteratorIPN2cv3MatEEEvEENS_5decayIDTclsr19__to_address_helperIT_EE6__callclsr3stdE7declvalIRKS7_EEEEE4typeES9_, symObjAddr: 0xE2BC, symBinAddr: 0x100011850, symSize: 0x24 }
  - { offsetInCU: 0x11E46, offset: 0x2C602, size: 0x8, addend: 0x0, symName: __ZNSt3__118__debug_db_erase_cB7v160006INS_6vectorIN2cv3MatENS_9allocatorIS3_EEEEEEvPT_, symObjAddr: 0xE5CC, symBinAddr: 0x100011B60, symSize: 0x10 }
  - { offsetInCU: 0x11E77, offset: 0x2C633, size: 0x8, addend: 0x0, symName: __ZNSt3__115__debug_db_swapB7v160006INS_12basic_stringIcNS_11char_traitsIcEENS_9allocatorIcEEEEEEvPT_S8_, symObjAddr: 0xE8C0, symBinAddr: 0x100011E54, symSize: 0x14 }
  - { offsetInCU: 0x11EB6, offset: 0x2C672, size: 0x8, addend: 0x0, symName: __ZNSt3__122__make_exception_guardB7v160006INS_6vectorIdNS_9allocatorIdEEE16__destroy_vectorEEENS_28__exception_guard_exceptionsIT_EES7_, symObjAddr: 0xEDA4, symBinAddr: 0x100012338, symSize: 0x40 }
  - { offsetInCU: 0x11EEB, offset: 0x2C6A7, size: 0x8, addend: 0x0, symName: __ZNSt3__119__debug_db_insert_cB7v160006INS_6vectorIdNS_9allocatorIdEEEEEEvPT_, symObjAddr: 0xEE18, symBinAddr: 0x1000123AC, symSize: 0x10 }
  - { offsetInCU: 0x11F1C, offset: 0x2C6D8, size: 0x8, addend: 0x0, symName: __ZNSt3__119__allocate_at_leastB7v160006INS_9allocatorIdEEEENS_19__allocation_resultINS_16allocator_traitsIT_E7pointerEEERS5_m, symObjAddr: 0xF1A8, symBinAddr: 0x10001273C, symSize: 0x40 }
  - { offsetInCU: 0x11F5F, offset: 0x2C71B, size: 0x8, addend: 0x0, symName: __ZNSt3__118__debug_db_erase_cB7v160006INS_6vectorIdNS_9allocatorIdEEEEEEvPT_, symObjAddr: 0xF650, symBinAddr: 0x100012BE4, symSize: 0x10 }
  - { offsetInCU: 0x11F90, offset: 0x2C74C, size: 0x8, addend: 0x0, symName: __ZNSt3__122__make_exception_guardB7v160006INS_6vectorIN2cv3VecIiLi2EEENS_9allocatorIS4_EEE16__destroy_vectorEEENS_28__exception_guard_exceptionsIT_EESA_, symObjAddr: 0xF7C8, symBinAddr: 0x100012D5C, symSize: 0x40 }
  - { offsetInCU: 0x11FC5, offset: 0x2C781, size: 0x8, addend: 0x0, symName: __ZNSt3__119__debug_db_insert_cB7v160006INS_6vectorIN2cv3VecIiLi2EEENS_9allocatorIS4_EEEEEEvPT_, symObjAddr: 0xF83C, symBinAddr: 0x100012DD0, symSize: 0x10 }
  - { offsetInCU: 0x11FF6, offset: 0x2C7B2, size: 0x8, addend: 0x0, symName: __ZNSt3__119__allocate_at_leastB7v160006INS_9allocatorIN2cv3VecIiLi2EEEEEEENS_19__allocation_resultINS_16allocator_traitsIT_E7pointerEEERS8_m, symObjAddr: 0xFBCC, symBinAddr: 0x100013160, symSize: 0x40 }
  - { offsetInCU: 0x12039, offset: 0x2C7F5, size: 0x8, addend: 0x0, symName: __ZNSt3__112__to_addressB7v160006IN2cv3VecIiLi2EEEEEPT_S5_, symObjAddr: 0xFEF0, symBinAddr: 0x100013484, symSize: 0x14 }
  - { offsetInCU: 0x1206F, offset: 0x2C82B, size: 0x8, addend: 0x0, symName: __ZNSt3__118__debug_db_erase_cB7v160006INS_6vectorIN2cv3VecIiLi2EEENS_9allocatorIS4_EEEEEEvPT_, symObjAddr: 0x10238, symBinAddr: 0x1000137CC, symSize: 0x10 }
  - { offsetInCU: 0x120A0, offset: 0x2C85C, size: 0x8, addend: 0x0, symName: __ZNSt3__130__uninitialized_allocator_copyB7v160006INS_9allocatorIdEEPdS3_S3_EET2_RT_T0_T1_S4_, symObjAddr: 0x10660, symBinAddr: 0x100013BF4, symSize: 0xF4 }
  - { offsetInCU: 0x12145, offset: 0x2C901, size: 0x8, addend: 0x0, symName: __ZNSt3__122__make_exception_guardB7v160006INS_29_AllocatorDestroyRangeReverseINS_9allocatorIdEEPdEEEENS_28__exception_guard_exceptionsIT_EES7_, symObjAddr: 0x10754, symBinAddr: 0x100013CE8, symSize: 0x4C }
  - { offsetInCU: 0x1217B, offset: 0x2C937, size: 0x8, addend: 0x0, symName: __ZNSt3__119__allocator_destroyB7v160006INS_9allocatorIdEENS_16reverse_iteratorIPdEES5_EEvRT_T0_T1_, symObjAddr: 0x109DC, symBinAddr: 0x100013F70, symSize: 0x70 }
  - { offsetInCU: 0x121E2, offset: 0x2C99E, size: 0x8, addend: 0x0, symName: __ZNSt3__1neB7v160006IPdS1_EEbRKNS_16reverse_iteratorIT_EERKNS2_IT0_EE, symObjAddr: 0x10A80, symBinAddr: 0x100014014, symSize: 0x48 }
  - { offsetInCU: 0x1222E, offset: 0x2C9EA, size: 0x8, addend: 0x0, symName: __ZNSt3__112__to_addressB7v160006INS_16reverse_iteratorIPdEEvEENS_5decayIDTclsr19__to_address_helperIT_EE6__callclsr3stdE7declvalIRKS5_EEEEE4typeES7_, symObjAddr: 0x10AC8, symBinAddr: 0x10001405C, symSize: 0x24 }
  - { offsetInCU: 0x1228F, offset: 0x2CA4B, size: 0x8, addend: 0x0, symName: __ZNSt3__111nth_elementB7v160006INS_11__wrap_iterIPdEENS_6__lessIddEEEEvT_S6_S6_T0_, symObjAddr: 0x10BD0, symBinAddr: 0x100014164, symSize: 0x50 }
  - { offsetInCU: 0x122F4, offset: 0x2CAB0, size: 0x8, addend: 0x0, symName: __ZNSt3__118__nth_element_implB7v160006INS_17_ClassicAlgPolicyENS_11__wrap_iterIPdEENS_6__lessIddEEEEvT0_S7_S7_RT1_, symObjAddr: 0x10C20, symBinAddr: 0x1000141B4, symSize: 0xF0 }
  - { offsetInCU: 0x12362, offset: 0x2CB1E, size: 0x8, addend: 0x0, symName: __ZNSt3__123__debug_randomize_rangeB7v160006INS_17_ClassicAlgPolicyENS_11__wrap_iterIPdEES4_EEvT0_T1_, symObjAddr: 0x10D10, symBinAddr: 0x1000142A4, symSize: 0x14 }
  - { offsetInCU: 0x123B3, offset: 0x2CB6F, size: 0x8, addend: 0x0, symName: __ZNSt3__113__nth_elementB7v160006INS_17_ClassicAlgPolicyERNS_6__lessIddEENS_11__wrap_iterIPdEEEEvT1_S8_S8_T0_, symObjAddr: 0x10D24, symBinAddr: 0x1000142B8, symSize: 0x724 }
  - { offsetInCU: 0x124C8, offset: 0x2CC84, size: 0x8, addend: 0x0, symName: __ZNSt3__1miB7v160006IPdS1_EEDTmicldtfp_4baseEcldtfp0_4baseEERKNS_11__wrap_iterIT_EERKNS3_IT0_EE, symObjAddr: 0x11448, symBinAddr: 0x1000149DC, symSize: 0x48 }
  - { offsetInCU: 0x125BE, offset: 0x2CD7A, size: 0x8, addend: 0x0, symName: __ZNSt3__17__sort3B7v160006INS_17_ClassicAlgPolicyERNS_6__lessIddEENS_11__wrap_iterIPdEEEEjT1_S8_S8_T0_, symObjAddr: 0x114F4, symBinAddr: 0x100014A88, symSize: 0x1E8 }
  - { offsetInCU: 0x1263E, offset: 0x2CDFA, size: 0x8, addend: 0x0, symName: __ZNSt3__116__selection_sortB7v160006INS_17_ClassicAlgPolicyERNS_6__lessIddEENS_11__wrap_iterIPdEEEEvT1_S8_T0_, symObjAddr: 0x116DC, symBinAddr: 0x100014C70, symSize: 0xB0 }
  - { offsetInCU: 0x126D4, offset: 0x2CE90, size: 0x8, addend: 0x0, symName: __ZNSt3__124__nth_element_find_guardB7v160006IRNS_6__lessIddEENS_11__wrap_iterIPdEEEEbRT0_S8_S7_T_, symObjAddr: 0x1178C, symBinAddr: 0x100014D20, symSize: 0xB8 }
  - { offsetInCU: 0x1273C, offset: 0x2CEF8, size: 0x8, addend: 0x0, symName: __ZNSt3__1geB7v160006IPdEEbRKNS_11__wrap_iterIT_EES6_, symObjAddr: 0x11844, symBinAddr: 0x100014DD8, symSize: 0x34 }
  - { offsetInCU: 0x1277F, offset: 0x2CF3B, size: 0x8, addend: 0x0, symName: __ZNSt3__1ltB7v160006IPdEEbRKNS_11__wrap_iterIT_EES6_, symObjAddr: 0x11878, symBinAddr: 0x100014E0C, symSize: 0x48 }
  - { offsetInCU: 0x127C2, offset: 0x2CF7E, size: 0x8, addend: 0x0, symName: __ZNSt3__19iter_swapB7v160006INS_11__wrap_iterIPdEES3_EEvT_T0_, symObjAddr: 0x118C0, symBinAddr: 0x100014E54, symSize: 0x50 }
  - { offsetInCU: 0x1280B, offset: 0x2CFC7, size: 0x8, addend: 0x0, symName: __ZNSt3__14swapB7v160006IdEENS_9enable_ifIXaasr21is_move_constructibleIT_EE5valuesr18is_move_assignableIS2_EE5valueEvE4typeERS2_S5_, symObjAddr: 0x11910, symBinAddr: 0x100014EA4, symSize: 0x3C }
  - { offsetInCU: 0x1285E, offset: 0x2D01A, size: 0x8, addend: 0x0, symName: __ZNSt3__113__min_elementB7v160006IRNS_6__lessIddEENS_11__wrap_iterIPdEES6_EET0_S7_T1_T_, symObjAddr: 0x1194C, symBinAddr: 0x100014EE0, symSize: 0x5C }
  - { offsetInCU: 0x128D0, offset: 0x2D08C, size: 0x8, addend: 0x0, symName: __ZNSt3__113__min_elementB7v160006IRNS_6__lessIddEENS_11__wrap_iterIPdEES6_NS_10__identityEEET0_S8_T1_T_RT2_, symObjAddr: 0x119A8, symBinAddr: 0x100014F3C, symSize: 0xF0 }
  - { offsetInCU: 0x12959, offset: 0x2D115, size: 0x8, addend: 0x0, symName: __ZNSt3__18__invokeB7v160006IRNS_6__lessIddEEJRdS4_EEEDTclclsr3stdE7declvalIT_EEspclsr3stdE7declvalIT0_EEEEOS5_DpOS6_, symObjAddr: 0x11A98, symBinAddr: 0x10001502C, symSize: 0x38 }
  - { offsetInCU: 0x129C3, offset: 0x2D17F, size: 0x8, addend: 0x0, symName: __ZNSt3__18__invokeB7v160006IRNS_10__identityEJRdEEEDTclclsr3stdE7declvalIT_EEspclsr3stdE7declvalIT0_EEEEOS4_DpOS5_, symObjAddr: 0x11AD0, symBinAddr: 0x100015064, symSize: 0x2C }
  - { offsetInCU: 0x12A45, offset: 0x2D201, size: 0x8, addend: 0x0, symName: __ZNSt3__122__make_exception_guardB7v160006INS_6vectorIiNS_9allocatorIiEEE16__destroy_vectorEEENS_28__exception_guard_exceptionsIT_EES7_, symObjAddr: 0x124EC, symBinAddr: 0x100015A80, symSize: 0x40 }
  - { offsetInCU: 0x12A7A, offset: 0x2D236, size: 0x8, addend: 0x0, symName: __ZNSt3__119__allocate_at_leastB7v160006INS_9allocatorIiEEEENS_19__allocation_resultINS_16allocator_traitsIT_E7pointerEEERS5_m, symObjAddr: 0x127D0, symBinAddr: 0x100015D64, symSize: 0x40 }
  - { offsetInCU: 0x12ABD, offset: 0x2D279, size: 0x8, addend: 0x0, symName: __ZNSt3__130__uninitialized_allocator_copyB7v160006INS_9allocatorIiEEiiLPv0EEEPT0_RT_PKS4_S9_S5_, symObjAddr: 0x12A48, symBinAddr: 0x100015FDC, symSize: 0x38 }
  - { offsetInCU: 0x12B3B, offset: 0x2D2F7, size: 0x8, addend: 0x0, symName: __ZNSt3__14copyB7v160006IPKiPiEET0_T_S5_S4_, symObjAddr: 0x12AF0, symBinAddr: 0x100016084, symSize: 0x40 }
  - { offsetInCU: 0x12B95, offset: 0x2D351, size: 0x8, addend: 0x0, symName: __ZNSt3__16__copyB7v160006INS_17_ClassicAlgPolicyEPKiS3_PiEENS_4pairIT0_T2_EES6_T1_S7_, symObjAddr: 0x12B30, symBinAddr: 0x1000160C4, symSize: 0x44 }
  - { offsetInCU: 0x12C01, offset: 0x2D3BD, size: 0x8, addend: 0x0, symName: __ZNSt3__123__dispatch_copy_or_moveB7v160006INS_17_ClassicAlgPolicyENS_11__copy_loopIS1_EENS_14__copy_trivialEPKiS6_PiEENS_4pairIT2_T4_EES9_T3_SA_, symObjAddr: 0x12B74, symBinAddr: 0x100016108, symSize: 0x44 }
  - { offsetInCU: 0x12C7F, offset: 0x2D43B, size: 0x8, addend: 0x0, symName: __ZNSt3__121__unwrap_and_dispatchB7v160006INS_10__overloadINS_11__copy_loopINS_17_ClassicAlgPolicyEEENS_14__copy_trivialEEEPKiS8_PiLi0EEENS_4pairIT0_T2_EESB_T1_SC_, symObjAddr: 0x12BB8, symBinAddr: 0x10001614C, symSize: 0xB4 }
  - { offsetInCU: 0x12D10, offset: 0x2D4CC, size: 0x8, addend: 0x0, symName: __ZNSt3__114__unwrap_rangeB7v160006IPKiS2_EENS_4pairIT0_S4_EET_S6_, symObjAddr: 0x12C6C, symBinAddr: 0x100016200, symSize: 0x60 }
  - { offsetInCU: 0x12EA8, offset: 0x2D664, size: 0x8, addend: 0x0, symName: __ZNSt3__113__unwrap_iterB7v160006IPiNS_18__unwrap_iter_implIS1_Lb1EEELi0EEEDTclsrT0_8__unwrapclsr3stdE7declvalIT_EEEES5_, symObjAddr: 0x12D14, symBinAddr: 0x1000162A8, symSize: 0x24 }
  - { offsetInCU: 0x12EED, offset: 0x2D6A9, size: 0x8, addend: 0x0, symName: __ZNSt3__19make_pairB7v160006IPKiPiEENS_4pairINS_18__unwrap_ref_decayIT_E4typeENS5_IT0_E4typeEEEOS6_OS9_, symObjAddr: 0x12D38, symBinAddr: 0x1000162CC, symSize: 0x38 }
  - { offsetInCU: 0x12F3F, offset: 0x2D6FB, size: 0x8, addend: 0x0, symName: __ZNSt3__114__rewrap_rangeB7v160006IPKiS2_EET_S3_T0_, symObjAddr: 0x12D70, symBinAddr: 0x100016304, symSize: 0x2C }
  - { offsetInCU: 0x12F8B, offset: 0x2D747, size: 0x8, addend: 0x0, symName: __ZNSt3__113__rewrap_iterB7v160006IPiS1_NS_18__unwrap_iter_implIS1_Lb1EEEEET_S4_T0_, symObjAddr: 0x12D9C, symBinAddr: 0x100016330, symSize: 0x3C }
  - { offsetInCU: 0x12FE0, offset: 0x2D79C, size: 0x8, addend: 0x0, symName: __ZNSt3__19make_pairB7v160006IPKiS2_EENS_4pairINS_18__unwrap_ref_decayIT_E4typeENS4_IT0_E4typeEEEOS5_OS8_, symObjAddr: 0x12DD8, symBinAddr: 0x10001636C, symSize: 0x38 }
  - { offsetInCU: 0x13032, offset: 0x2D7EE, size: 0x8, addend: 0x0, symName: __ZNSt3__113__unwrap_iterB7v160006IPKiNS_18__unwrap_iter_implIS2_Lb1EEELi0EEEDTclsrT0_8__unwrapclsr3stdE7declvalIT_EEEES6_, symObjAddr: 0x12E10, symBinAddr: 0x1000163A4, symSize: 0x24 }
  - { offsetInCU: 0x1319F, offset: 0x2D95B, size: 0x8, addend: 0x0, symName: __ZNSt3__112__to_addressB7v160006IKiEEPT_S3_, symObjAddr: 0x12EC8, symBinAddr: 0x10001645C, symSize: 0x14 }
  - { offsetInCU: 0x131D5, offset: 0x2D991, size: 0x8, addend: 0x0, symName: __ZNSt3__119__copy_trivial_implB7v160006IKiiEENS_4pairIPT_PT0_EES4_S4_S6_, symObjAddr: 0x12EDC, symBinAddr: 0x100016470, symSize: 0x84 }
  - { offsetInCU: 0x1323E, offset: 0x2D9FA, size: 0x8, addend: 0x0, symName: __ZNSt3__19make_pairB7v160006IRPKiPiEENS_4pairINS_18__unwrap_ref_decayIT_E4typeENS6_IT0_E4typeEEEOS7_OSA_, symObjAddr: 0x12F60, symBinAddr: 0x1000164F4, symSize: 0x38 }
  - { offsetInCU: 0x132E3, offset: 0x2DA9F, size: 0x8, addend: 0x0, symName: __ZNSt3__113__rewrap_iterB7v160006IPKiS2_NS_18__unwrap_iter_implIS2_Lb1EEEEET_S5_T0_, symObjAddr: 0x1309C, symBinAddr: 0x100016630, symSize: 0x3C }
  - { offsetInCU: 0x13338, offset: 0x2DAF4, size: 0x8, addend: 0x0, symName: __ZNSt3__142__uninitialized_allocator_move_if_noexceptB7v160006INS_9allocatorIiEENS_16reverse_iteratorIPiEES5_ivEET1_RT_T0_S9_S6_, symObjAddr: 0x13814, symBinAddr: 0x100016DA8, symSize: 0x78 }
  - { offsetInCU: 0x133BB, offset: 0x2DB77, size: 0x8, addend: 0x0, symName: __ZNSt3__14swapB7v160006IPiEENS_9enable_ifIXaasr21is_move_constructibleIT_EE5valuesr18is_move_assignableIS3_EE5valueEvE4typeERS3_S6_, symObjAddr: 0x138D8, symBinAddr: 0x100016E6C, symSize: 0x3C }
  - { offsetInCU: 0x1340E, offset: 0x2DBCA, size: 0x8, addend: 0x0, symName: __ZNSt3__125__debug_db_invalidate_allB7v160006INS_6vectorIiNS_9allocatorIiEEEEEEvPT_, symObjAddr: 0x13914, symBinAddr: 0x100016EA8, symSize: 0x10 }
  - { offsetInCU: 0x1343F, offset: 0x2DBFB, size: 0x8, addend: 0x0, symName: __ZNSt3__14moveB7v160006INS_16reverse_iteratorIPiEES3_EET0_T_S5_S4_, symObjAddr: 0x13924, symBinAddr: 0x100016EB8, symSize: 0x78 }
  - { offsetInCU: 0x13499, offset: 0x2DC55, size: 0x8, addend: 0x0, symName: __ZNSt3__16__moveB7v160006INS_17_ClassicAlgPolicyENS_16reverse_iteratorIPiEES4_S4_EENS_4pairIT0_T2_EES6_T1_S7_, symObjAddr: 0x1399C, symBinAddr: 0x100016F30, symSize: 0x64 }
  - { offsetInCU: 0x13505, offset: 0x2DCC1, size: 0x8, addend: 0x0, symName: __ZNSt3__123__dispatch_copy_or_moveB7v160006INS_17_ClassicAlgPolicyENS_11__move_loopIS1_EENS_14__move_trivialENS_16reverse_iteratorIPiEES7_S7_EENS_4pairIT2_T4_EES9_T3_SA_, symObjAddr: 0x13A00, symBinAddr: 0x100016F94, symSize: 0x64 }
  - { offsetInCU: 0x13583, offset: 0x2DD3F, size: 0x8, addend: 0x0, symName: __ZNSt3__121__unwrap_and_dispatchB7v160006INS_10__overloadINS_11__move_loopINS_17_ClassicAlgPolicyEEENS_14__move_trivialEEENS_16reverse_iteratorIPiEES9_S9_Li0EEENS_4pairIT0_T2_EESB_T1_SC_, symObjAddr: 0x13A64, symBinAddr: 0x100016FF8, symSize: 0x12C }
  - { offsetInCU: 0x13616, offset: 0x2DDD2, size: 0x8, addend: 0x0, symName: __ZNSt3__114__unwrap_rangeB7v160006INS_16reverse_iteratorIPiEES3_EENS_4pairIT0_S5_EET_S7_, symObjAddr: 0x13B90, symBinAddr: 0x100017124, symSize: 0x84 }
  - { offsetInCU: 0x137C8, offset: 0x2DF84, size: 0x8, addend: 0x0, symName: __ZNSt3__113__unwrap_iterB7v160006INS_16reverse_iteratorIPiEENS_18__unwrap_iter_implIS3_Lb0EEELi0EEEDTclsrT0_8__unwrapclsr3stdE7declvalIT_EEEES7_, symObjAddr: 0x13CB4, symBinAddr: 0x100017248, symSize: 0x44 }
  - { offsetInCU: 0x1380D, offset: 0x2DFC9, size: 0x8, addend: 0x0, symName: __ZNSt3__19make_pairB7v160006INS_16reverse_iteratorIPiEES3_EENS_4pairINS_18__unwrap_ref_decayIT_E4typeENS5_IT0_E4typeEEEOS6_OS9_, symObjAddr: 0x13CF8, symBinAddr: 0x10001728C, symSize: 0x38 }
  - { offsetInCU: 0x1385F, offset: 0x2E01B, size: 0x8, addend: 0x0, symName: __ZNSt3__114__rewrap_rangeB7v160006INS_16reverse_iteratorIPiEES3_EET_S4_T0_, symObjAddr: 0x13D30, symBinAddr: 0x1000172C4, symSize: 0x5C }
  - { offsetInCU: 0x138AB, offset: 0x2E067, size: 0x8, addend: 0x0, symName: __ZNSt3__113__rewrap_iterB7v160006INS_16reverse_iteratorIPiEES3_NS_18__unwrap_iter_implIS3_Lb0EEEEET_S6_T0_, symObjAddr: 0x13D8C, symBinAddr: 0x100017320, symSize: 0x74 }
  - { offsetInCU: 0x13900, offset: 0x2E0BC, size: 0x8, addend: 0x0, symName: __ZNSt3__1neB7v160006IPiS1_EEbRKNS_16reverse_iteratorIT_EERKNS2_IT0_EE, symObjAddr: 0x13E00, symBinAddr: 0x100017394, symSize: 0x48 }
  - { offsetInCU: 0x139B9, offset: 0x2E175, size: 0x8, addend: 0x0, symName: __ZNSt3__119__allocate_at_leastB7v160006INS_9allocatorINS_6vectorIdNS1_IdEEEEEEEENS_19__allocation_resultINS_16allocator_traitsIT_E7pointerEEERS8_m, symObjAddr: 0x14C30, symBinAddr: 0x1000181C4, symSize: 0x40 }
  - { offsetInCU: 0x139FC, offset: 0x2E1B8, size: 0x8, addend: 0x0, symName: __ZNSt3__142__uninitialized_allocator_move_if_noexceptB7v160006INS_9allocatorINS_6vectorIdNS1_IdEEEEEENS_16reverse_iteratorIPS4_EES8_S8_EET2_RT_T0_T1_S9_, symObjAddr: 0x14DE8, symBinAddr: 0x10001837C, symSize: 0x12C }
  - { offsetInCU: 0x13AA3, offset: 0x2E25F, size: 0x8, addend: 0x0, symName: __ZNSt3__14swapB7v160006IPNS_6vectorIdNS_9allocatorIdEEEEEENS_9enable_ifIXaasr21is_move_constructibleIT_EE5valuesr18is_move_assignableIS7_EE5valueEvE4typeERS7_SA_, symObjAddr: 0x14F60, symBinAddr: 0x1000184F4, symSize: 0x3C }
  - { offsetInCU: 0x13AF6, offset: 0x2E2B2, size: 0x8, addend: 0x0, symName: __ZNSt3__122__make_exception_guardB7v160006INS_29_AllocatorDestroyRangeReverseINS_9allocatorINS_6vectorIdNS2_IdEEEEEENS_16reverse_iteratorIPS5_EEEEEENS_28__exception_guard_exceptionsIT_EESC_, symObjAddr: 0x15064, symBinAddr: 0x1000185F8, symSize: 0x4C }
  - { offsetInCU: 0x13B2C, offset: 0x2E2E8, size: 0x8, addend: 0x0, symName: __ZNSt3__1neB7v160006IPNS_6vectorIdNS_9allocatorIdEEEES5_EEbRKNS_16reverse_iteratorIT_EERKNS6_IT0_EE, symObjAddr: 0x150F4, symBinAddr: 0x100018688, symSize: 0x48 }
  - { offsetInCU: 0x13B78, offset: 0x2E334, size: 0x8, addend: 0x0, symName: __ZNSt3__112__to_addressB7v160006INS_16reverse_iteratorIPNS_6vectorIdNS_9allocatorIdEEEEEEvEENS_5decayIDTclsr19__to_address_helperIT_EE6__callclsr3stdE7declvalIRKS9_EEEEE4typeESB_, symObjAddr: 0x1513C, symBinAddr: 0x1000186D0, symSize: 0x24 }
  - { offsetInCU: 0x13BD9, offset: 0x2E395, size: 0x8, addend: 0x0, symName: __ZNSt3__119__allocator_destroyB7v160006INS_9allocatorINS_6vectorIdNS1_IdEEEEEENS_16reverse_iteratorINS6_IPS4_EEEES9_EEvRT_T0_T1_, symObjAddr: 0x153EC, symBinAddr: 0x100018980, symSize: 0x70 }
  - { offsetInCU: 0x13C42, offset: 0x2E3FE, size: 0x8, addend: 0x0, symName: __ZNSt3__1neB7v160006INS_16reverse_iteratorIPNS_6vectorIdNS_9allocatorIdEEEEEES7_EEbRKNS1_IT_EERKNS1_IT0_EE, symObjAddr: 0x15498, symBinAddr: 0x100018A2C, symSize: 0x60 }
  - { offsetInCU: 0x13C8E, offset: 0x2E44A, size: 0x8, addend: 0x0, symName: __ZNSt3__112__to_addressB7v160006INS_16reverse_iteratorINS1_IPNS_6vectorIdNS_9allocatorIdEEEEEEEEvEENS_5decayIDTclsr19__to_address_helperIT_EE6__callclsr3stdE7declvalIRKSA_EEEEE4typeESC_, symObjAddr: 0x154F8, symBinAddr: 0x100018A8C, symSize: 0x24 }
  - { offsetInCU: 0x13CEF, offset: 0x2E4AB, size: 0x8, addend: 0x0, symName: __ZNSt3__142__uninitialized_allocator_move_if_noexceptB7v160006INS_9allocatorIdEENS_16reverse_iteratorIPdEES5_dvEET1_RT_T0_S9_S6_, symObjAddr: 0x15E30, symBinAddr: 0x1000193C4, symSize: 0x78 }
  - { offsetInCU: 0x13D72, offset: 0x2E52E, size: 0x8, addend: 0x0, symName: __ZNSt3__14swapB7v160006IPdEENS_9enable_ifIXaasr21is_move_constructibleIT_EE5valuesr18is_move_assignableIS3_EE5valueEvE4typeERS3_S6_, symObjAddr: 0x15EA8, symBinAddr: 0x10001943C, symSize: 0x3C }
  - { offsetInCU: 0x13DC5, offset: 0x2E581, size: 0x8, addend: 0x0, symName: __ZNSt3__14moveB7v160006INS_16reverse_iteratorIPdEES3_EET0_T_S5_S4_, symObjAddr: 0x15EE4, symBinAddr: 0x100019478, symSize: 0x78 }
  - { offsetInCU: 0x13E1F, offset: 0x2E5DB, size: 0x8, addend: 0x0, symName: __ZNSt3__16__moveB7v160006INS_17_ClassicAlgPolicyENS_16reverse_iteratorIPdEES4_S4_EENS_4pairIT0_T2_EES6_T1_S7_, symObjAddr: 0x15F5C, symBinAddr: 0x1000194F0, symSize: 0x64 }
  - { offsetInCU: 0x13E8B, offset: 0x2E647, size: 0x8, addend: 0x0, symName: __ZNSt3__123__dispatch_copy_or_moveB7v160006INS_17_ClassicAlgPolicyENS_11__move_loopIS1_EENS_14__move_trivialENS_16reverse_iteratorIPdEES7_S7_EENS_4pairIT2_T4_EES9_T3_SA_, symObjAddr: 0x15FC0, symBinAddr: 0x100019554, symSize: 0x64 }
  - { offsetInCU: 0x13F09, offset: 0x2E6C5, size: 0x8, addend: 0x0, symName: __ZNSt3__121__unwrap_and_dispatchB7v160006INS_10__overloadINS_11__move_loopINS_17_ClassicAlgPolicyEEENS_14__move_trivialEEENS_16reverse_iteratorIPdEES9_S9_Li0EEENS_4pairIT0_T2_EESB_T1_SC_, symObjAddr: 0x16024, symBinAddr: 0x1000195B8, symSize: 0x12C }
  - { offsetInCU: 0x13F9C, offset: 0x2E758, size: 0x8, addend: 0x0, symName: __ZNSt3__114__unwrap_rangeB7v160006INS_16reverse_iteratorIPdEES3_EENS_4pairIT0_S5_EET_S7_, symObjAddr: 0x16150, symBinAddr: 0x1000196E4, symSize: 0x84 }
  - { offsetInCU: 0x140BD, offset: 0x2E879, size: 0x8, addend: 0x0, symName: __ZNSt3__113__unwrap_iterB7v160006INS_16reverse_iteratorIPdEENS_18__unwrap_iter_implIS3_Lb0EEELi0EEEDTclsrT0_8__unwrapclsr3stdE7declvalIT_EEEES7_, symObjAddr: 0x16274, symBinAddr: 0x100019808, symSize: 0x44 }
  - { offsetInCU: 0x14102, offset: 0x2E8BE, size: 0x8, addend: 0x0, symName: __ZNSt3__19make_pairB7v160006INS_16reverse_iteratorIPdEES3_EENS_4pairINS_18__unwrap_ref_decayIT_E4typeENS5_IT0_E4typeEEEOS6_OS9_, symObjAddr: 0x162B8, symBinAddr: 0x10001984C, symSize: 0x38 }
  - { offsetInCU: 0x14154, offset: 0x2E910, size: 0x8, addend: 0x0, symName: __ZNSt3__114__rewrap_rangeB7v160006INS_16reverse_iteratorIPdEES3_EET_S4_T0_, symObjAddr: 0x162F0, symBinAddr: 0x100019884, symSize: 0x5C }
  - { offsetInCU: 0x141A0, offset: 0x2E95C, size: 0x8, addend: 0x0, symName: __ZNSt3__113__rewrap_iterB7v160006INS_16reverse_iteratorIPdEES3_NS_18__unwrap_iter_implIS3_Lb0EEEEET_S6_T0_, symObjAddr: 0x1634C, symBinAddr: 0x1000198E0, symSize: 0x74 }
  - { offsetInCU: 0x14898, offset: 0x2F054, size: 0x8, addend: 0x0, symName: __ZSt28__throw_bad_array_new_lengthB7v160006v, symObjAddr: 0xDB1C, symBinAddr: 0x1000110B0, symSize: 0x34 }
  - { offsetInCU: 0x1CDE3, offset: 0x3759F, size: 0x8, addend: 0x0, symName: __ZN2cvL28morphologyDefaultBorderValueEv, symObjAddr: 0x3004, symBinAddr: 0x100006B18, symSize: 0x2C }
  - { offsetInCU: 0x1CE02, offset: 0x375BE, size: 0x8, addend: 0x0, symName: __ZN2cvmiIiLi2EEENS_3VecIT_XT0_EEERKS3_S5_, symObjAddr: 0x3304, symBinAddr: 0x100006DB8, symSize: 0x58 }
  - { offsetInCU: 0x1CE55, offset: 0x37611, size: 0x8, addend: 0x0, symName: __ZN2cvlsIiLi2EEERNSt3__113basic_ostreamIcNS1_11char_traitsIcEEEES6_RKNS_3VecIT_XT0_EEE, symObjAddr: 0x4210, symBinAddr: 0x100007CC4, symSize: 0xC4 }
  - { offsetInCU: 0x1CEC1, offset: 0x3767D, size: 0x8, addend: 0x0, symName: __ZN2cvpLIdiLi3EEERNS_3VecIT_XT1_EEES4_RKNS1_IT0_XT1_EEE, symObjAddr: 0x591C, symBinAddr: 0x1000093D0, symSize: 0x8C }
  - { offsetInCU: 0x1CF3C, offset: 0x376F8, size: 0x8, addend: 0x0, symName: __ZN2cvmlIiLi3EEENS_3VecIT_XT0_EEEdRKS3_, symObjAddr: 0x59A8, symBinAddr: 0x10000945C, symSize: 0x58 }
  - { offsetInCU: 0x1CF8F, offset: 0x3774B, size: 0x8, addend: 0x0, symName: __ZN2cvpLIdiLi2EEERNS_3VecIT_XT1_EEES4_RKNS1_IT0_XT1_EEE, symObjAddr: 0x5A00, symBinAddr: 0x1000094B4, symSize: 0x8C }
  - { offsetInCU: 0x1D00A, offset: 0x377C6, size: 0x8, addend: 0x0, symName: __ZN2cvmlIiLi2EEENS_3VecIT_XT0_EEEdRKS3_, symObjAddr: 0x5A8C, symBinAddr: 0x100009540, symSize: 0x58 }
  - { offsetInCU: 0x1D05D, offset: 0x37819, size: 0x8, addend: 0x0, symName: __ZN2cvdVIdLi3EEERNS_3VecIT_XT0_EEES4_f, symObjAddr: 0x5AE4, symBinAddr: 0x100009598, symSize: 0x9C }
  - { offsetInCU: 0x1D0DF, offset: 0x3789B, size: 0x8, addend: 0x0, symName: __ZN2cvdVIdLi2EEERNS_3VecIT_XT0_EEES4_f, symObjAddr: 0x5B80, symBinAddr: 0x100009634, symSize: 0x9C }
  - { offsetInCU: 0x1D161, offset: 0x3791D, size: 0x8, addend: 0x0, symName: __ZN2cvL13saturate_castIhEET_d, symObjAddr: 0x5C1C, symBinAddr: 0x1000096D0, symSize: 0x34 }
  - { offsetInCU: 0x1D1A6, offset: 0x37962, size: 0x8, addend: 0x0, symName: __ZN2cvplIiLi2EEENS_3VecIT_XT0_EEERKS3_S5_, symObjAddr: 0x6F94, symBinAddr: 0x10000AA48, symSize: 0x58 }
  - { offsetInCU: 0x1D1F9, offset: 0x379B5, size: 0x8, addend: 0x0, symName: __ZN2cvanIiEENS_5Rect_IT_EERKS3_S5_, symObjAddr: 0x9D4C, symBinAddr: 0x10000D628, symSize: 0x48 }
  - { offsetInCU: 0x1D252, offset: 0x37A0E, size: 0x8, addend: 0x0, symName: __ZN2cvaNIiEERNS_5Rect_IT_EES4_RKS3_, symObjAddr: 0x9D94, symBinAddr: 0x10000D670, symSize: 0x2E0 }
  - { offsetInCU: 0x1D2DC, offset: 0x37A98, size: 0x8, addend: 0x0, symName: __ZN2cvL13saturate_castIhEET_i, symObjAddr: 0xA1F0, symBinAddr: 0x10000DACC, symSize: 0x60 }
  - { offsetInCU: 0x1D312, offset: 0x37ACE, size: 0x8, addend: 0x0, symName: __ZN2cvmLERNS_3MatERKd, symObjAddr: 0xA63C, symBinAddr: 0x10000DF18, symSize: 0x84 }
  - { offsetInCU: 0x1D352, offset: 0x37B0E, size: 0x8, addend: 0x0, symName: __ZN2cvL13saturate_castIiEET_i, symObjAddr: 0xEC4C, symBinAddr: 0x1000121E0, symSize: 0x14 }
  - { offsetInCU: 0x1D388, offset: 0x37B44, size: 0x8, addend: 0x0, symName: __ZN2cvL13saturate_castIdEET_f, symObjAddr: 0x11B40, symBinAddr: 0x1000150D4, symSize: 0x18 }
  - { offsetInCU: 0x1D3E7, offset: 0x37BA3, size: 0x8, addend: 0x0, symName: __ZN2cvL13saturate_castIiEET_d, symObjAddr: 0x11F30, symBinAddr: 0x1000154C4, symSize: 0x24 }
  - { offsetInCU: 0x1D41D, offset: 0x37BD9, size: 0x8, addend: 0x0, symName: __ZN2cvL13saturate_castIdEET_d, symObjAddr: 0x11F54, symBinAddr: 0x1000154E8, symSize: 0x14 }
  - { offsetInCU: 0x1D453, offset: 0x37C0F, size: 0x8, addend: 0x0, symName: __ZN2cvL13saturate_castIiEET_h, symObjAddr: 0x1226C, symBinAddr: 0x100015800, symSize: 0x14 }
  - { offsetInCU: 0x1E18F, offset: 0x3894B, size: 0x8, addend: 0x0, symName: __Z3powB7v160006IijENSt3__19enable_ifIXaasr3std13is_arithmeticIT_EE5valuesr3std13is_arithmeticIT0_EE5valueENS0_9__promoteIS2_S3_vEEE4type4typeES2_S3_, symObjAddr: 0x2EDC, symBinAddr: 0x100006A2C, symSize: 0x40 }
  - { offsetInCU: 0x1E42D, offset: 0x38BE9, size: 0x8, addend: 0x0, symName: __ZNSt3__16vectorIiNS_9allocatorIiEEE26__swap_out_circular_bufferERNS_14__split_bufferIiRS2_EE, symObjAddr: 0x134A4, symBinAddr: 0x100016A38, symSize: 0x118 }
  - { offsetInCU: 0x1E485, offset: 0x38C41, size: 0x8, addend: 0x0, symName: __ZNSt3__16vectorINS0_IdNS_9allocatorIdEEEENS1_IS3_EEE26__swap_out_circular_bufferERNS_14__split_bufferIS3_RS4_EE, symObjAddr: 0x148B8, symBinAddr: 0x100017E4C, symSize: 0x118 }
  - { offsetInCU: 0x1E519, offset: 0x38CD5, size: 0x8, addend: 0x0, symName: __ZNSt3__16vectorIdNS_9allocatorIdEEE26__swap_out_circular_bufferERNS_14__split_bufferIdRS2_EE, symObjAddr: 0x15AC0, symBinAddr: 0x100019054, symSize: 0x118 }
  - { offsetInCU: 0x207AF, offset: 0x3AF6B, size: 0x8, addend: 0x0, symName: __ZN19PatchMatchInpainter12initPyramidsEN2cv3MatES1_, symObjAddr: 0x0, symBinAddr: 0x100003C70, symSize: 0x2CD8 }
  - { offsetInCU: 0x20AD6, offset: 0x3B292, size: 0x8, addend: 0x0, symName: __ZNK2cv7MatExprcvNS_3MatEEv, symObjAddr: 0x2D98, symBinAddr: 0x100006948, symSize: 0xB8 }
  - { offsetInCU: 0x20B10, offset: 0x3B2CC, size: 0x8, addend: 0x0, symName: __ZN2cv7MatExprD1Ev, symObjAddr: 0x2E50, symBinAddr: 0x100006A00, symSize: 0x2C }
  - { offsetInCU: 0x20B3D, offset: 0x3B2F9, size: 0x8, addend: 0x0, symName: __ZN2cv5Size_IiEC1Eii, symObjAddr: 0x2F1C, symBinAddr: 0x100006A6C, symSize: 0x3C }
  - { offsetInCU: 0x20B89, offset: 0x3B345, size: 0x8, addend: 0x0, symName: __ZNSt3__16vectorIN2cv3MatENS_9allocatorIS2_EEEC1B7v160006ESt16initializer_listIS2_E, symObjAddr: 0x2F94, symBinAddr: 0x100006AA8, symSize: 0x3C }
  - { offsetInCU: 0x20BC5, offset: 0x3B381, size: 0x8, addend: 0x0, symName: __ZN2cv11_InputArrayC1ERKNSt3__16vectorINS_3MatENS1_9allocatorIS3_EEEE, symObjAddr: 0x2FD0, symBinAddr: 0x100006AE4, symSize: 0x34 }
  - { offsetInCU: 0x20C04, offset: 0x3B3C0, size: 0x8, addend: 0x0, symName: __ZNSt3__16vectorIN2cv3MatENS_9allocatorIS2_EEEC1B7v160006Ev, symObjAddr: 0x3064, symBinAddr: 0x100006B44, symSize: 0x2C }
  - { offsetInCU: 0x20C2D, offset: 0x3B3E9, size: 0x8, addend: 0x0, symName: __ZN2cv12_OutputArrayC1ERNSt3__16vectorINS_3MatENS1_9allocatorIS3_EEEE, symObjAddr: 0x3090, symBinAddr: 0x100006B70, symSize: 0x34 }
  - { offsetInCU: 0x20C67, offset: 0x3B423, size: 0x8, addend: 0x0, symName: __ZNSt3__16vectorIN2cv3MatENS_9allocatorIS2_EEEixB7v160006Em, symObjAddr: 0x30C4, symBinAddr: 0x100006BA4, symSize: 0x2C }
  - { offsetInCU: 0x20C9F, offset: 0x3B45B, size: 0x8, addend: 0x0, symName: __ZNSt3__16vectorIN2cv3MatENS_9allocatorIS2_EEED1B7v160006Ev, symObjAddr: 0x30F0, symBinAddr: 0x100006BD0, symSize: 0x2C }
  - { offsetInCU: 0x20CC8, offset: 0x3B484, size: 0x8, addend: 0x0, symName: __ZN2cv7Scalar_IdEC1Ev, symObjAddr: 0x318C, symBinAddr: 0x100006C40, symSize: 0x2C }
  - { offsetInCU: 0x20CF4, offset: 0x3B4B0, size: 0x8, addend: 0x0, symName: __ZN2cv7Scalar_IdEC1Ed, symObjAddr: 0x31B8, symBinAddr: 0x100006C6C, symSize: 0x34 }
  - { offsetInCU: 0x20D30, offset: 0x3B4EC, size: 0x8, addend: 0x0, symName: __ZN2cv3VecIiLi2EEC1Eii, symObjAddr: 0x31EC, symBinAddr: 0x100006CA0, symSize: 0x3C }
  - { offsetInCU: 0x20D7C, offset: 0x3B538, size: 0x8, addend: 0x0, symName: __ZN2cv3VecIiLi2EEC1ERKS1_, symObjAddr: 0x3228, symBinAddr: 0x100006CDC, symSize: 0x34 }
  - { offsetInCU: 0x20DB8, offset: 0x3B574, size: 0x8, addend: 0x0, symName: __ZN2cv3Mat2atIbEERT_ii, symObjAddr: 0x325C, symBinAddr: 0x100006D10, symSize: 0x3C }
  - { offsetInCU: 0x20E07, offset: 0x3B5C3, size: 0x8, addend: 0x0, symName: __ZN2cv3VecIiLi2EEixEi, symObjAddr: 0x3298, symBinAddr: 0x100006D4C, symSize: 0x20 }
  - { offsetInCU: 0x20E3F, offset: 0x3B5FB, size: 0x8, addend: 0x0, symName: __ZL17generateRandomIntii, symObjAddr: 0x32B8, symBinAddr: 0x100006D6C, symSize: 0x4C }
  - { offsetInCU: 0x20E7A, offset: 0x3B636, size: 0x8, addend: 0x0, symName: __ZN2cv3Mat2atINS_3VecIiLi2EEEEERT_ii, symObjAddr: 0x335C, symBinAddr: 0x100006E10, symSize: 0x3C }
  - { offsetInCU: 0x20EC9, offset: 0x3B685, size: 0x8, addend: 0x0, symName: __ZN2cv3MataSERKNS_7MatExprE, symObjAddr: 0x3398, symBinAddr: 0x100006E4C, symSize: 0x48 }
  - { offsetInCU: 0x20F02, offset: 0x3B6BE, size: 0x8, addend: 0x0, symName: __ZN19PatchMatchInpainter13patchDistanceEiN2cv3VecIiLi2EEES2_14AlgorithmStageRdNSt3__18optionalINS5_17reference_wrapperINS0_3MatEEEEENS5_12basic_stringIcNS5_11char_traitsIcEENS5_9allocatorIcEEEE, symObjAddr: 0x33E0, symBinAddr: 0x100006E94, symSize: 0xBA4 }
  - { offsetInCU: 0x21117, offset: 0x3B8D3, size: 0x8, addend: 0x0, symName: __ZN10CycleTimer14currentSecondsEv, symObjAddr: 0x3F84, symBinAddr: 0x100007A38, symSize: 0x34 }
  - { offsetInCU: 0x2112B, offset: 0x3B8E7, size: 0x8, addend: 0x0, symName: __ZNSt3__18optionalINS_17reference_wrapperIN2cv3MatEEEEptB7v160006Ev, symObjAddr: 0x3FE0, symBinAddr: 0x100007A94, symSize: 0x24 }
  - { offsetInCU: 0x21151, offset: 0x3B90D, size: 0x8, addend: 0x0, symName: __ZNKSt3__117reference_wrapperIN2cv3MatEE3getB7v160006Ev, symObjAddr: 0x4004, symBinAddr: 0x100007AB8, symSize: 0x18 }
  - { offsetInCU: 0x21177, offset: 0x3B933, size: 0x8, addend: 0x0, symName: __ZL8inBoundsiiiii, symObjAddr: 0x4048, symBinAddr: 0x100007AFC, symSize: 0xB0 }
  - { offsetInCU: 0x211DC, offset: 0x3B998, size: 0x8, addend: 0x0, symName: __ZNSt3__113basic_ostreamIcNS_11char_traitsIcEEElsB7v160006EPFRS3_S4_E, symObjAddr: 0x418C, symBinAddr: 0x100007C40, symSize: 0x2C }
  - { offsetInCU: 0x21210, offset: 0x3B9CC, size: 0x8, addend: 0x0, symName: __ZN19PatchMatchInpainter11patchRegionEN2cv3VecIiLi2EEEjjb, symObjAddr: 0x42D4, symBinAddr: 0x100007D88, symSize: 0x11C }
  - { offsetInCU: 0x2129D, offset: 0x3BA59, size: 0x8, addend: 0x0, symName: __ZNK2cv3MatclERKNS_5Rect_IiEE, symObjAddr: 0x43F0, symBinAddr: 0x100007EA4, symSize: 0x40 }
  - { offsetInCU: 0x212D6, offset: 0x3BA92, size: 0x8, addend: 0x0, symName: __ZN2cv3VecIdLi4EEixEi, symObjAddr: 0x4430, symBinAddr: 0x100007EE4, symSize: 0x20 }
  - { offsetInCU: 0x2130E, offset: 0x3BACA, size: 0x8, addend: 0x0, symName: __ZN2cv7Scalar_IdE3allEd, symObjAddr: 0x4450, symBinAddr: 0x100007F04, symSize: 0x3C }
  - { offsetInCU: 0x21335, offset: 0x3BAF1, size: 0x8, addend: 0x0, symName: __ZN2cv11_InputArrayC1IdLi4ELi1EEERKNS_4MatxIT_XT0_EXT1_EEE, symObjAddr: 0x448C, symBinAddr: 0x100007F40, symSize: 0x34 }
  - { offsetInCU: 0x21389, offset: 0x3BB45, size: 0x8, addend: 0x0, symName: __ZN19PatchMatchInpainter16reconstructImageEi14AlgorithmStageNSt3__18optionalINS1_17reference_wrapperIN2cv3MatEEEEES7_, symObjAddr: 0x44C0, symBinAddr: 0x100007F74, symSize: 0xFF4 }
  - { offsetInCU: 0x216DE, offset: 0x3BE9A, size: 0x8, addend: 0x0, symName: __ZNK2cv5Rect_IiE4areaEv, symObjAddr: 0x54B4, symBinAddr: 0x100008F68, symSize: 0x28 }
  - { offsetInCU: 0x21716, offset: 0x3BED2, size: 0x8, addend: 0x0, symName: __ZN2cv3Mat2atIfEERT_ii, symObjAddr: 0x54DC, symBinAddr: 0x100008F90, symSize: 0x3C }
  - { offsetInCU: 0x21765, offset: 0x3BF21, size: 0x8, addend: 0x0, symName: __ZNSt3__16vectorIdNS_9allocatorIdEEEC1EmRKd, symObjAddr: 0x5518, symBinAddr: 0x100008FCC, symSize: 0x3C }
  - { offsetInCU: 0x217B1, offset: 0x3BF6D, size: 0x8, addend: 0x0, symName: __ZNSt3__16vectorIN2cv3VecIiLi2EEENS_9allocatorIS3_EEEC1EmRKS3_, symObjAddr: 0x5554, symBinAddr: 0x100009008, symSize: 0x3C }
  - { offsetInCU: 0x217FD, offset: 0x3BFB9, size: 0x8, addend: 0x0, symName: __ZNSt3__16vectorIN2cv3VecIiLi2EEENS_9allocatorIS3_EEEixB7v160006Em, symObjAddr: 0x5590, symBinAddr: 0x100009044, symSize: 0x24 }
  - { offsetInCU: 0x21835, offset: 0x3BFF1, size: 0x8, addend: 0x0, symName: __ZNSt3__16vectorIdNS_9allocatorIdEEEixB7v160006Em, symObjAddr: 0x55B4, symBinAddr: 0x100009068, symSize: 0x24 }
  - { offsetInCU: 0x2186D, offset: 0x3C029, size: 0x8, addend: 0x0, symName: __ZN2cv3Mat2atINS_3VecIiLi3EEEEERT_ii, symObjAddr: 0x55D8, symBinAddr: 0x10000908C, symSize: 0x44 }
  - { offsetInCU: 0x218BC, offset: 0x3C078, size: 0x8, addend: 0x0, symName: __ZNSt3__16vectorIdNS_9allocatorIdEEEC1ERKS3_, symObjAddr: 0x561C, symBinAddr: 0x1000090D0, symSize: 0x34 }
  - { offsetInCU: 0x218F8, offset: 0x3C0B4, size: 0x8, addend: 0x0, symName: __ZNKSt3__16vectorIdNS_9allocatorIdEEE4sizeB7v160006Ev, symObjAddr: 0x5650, symBinAddr: 0x100009104, symSize: 0x28 }
  - { offsetInCU: 0x2191E, offset: 0x3C0DA, size: 0x8, addend: 0x0, symName: __ZNSt3__16vectorIdNS_9allocatorIdEEE5beginB7v160006Ev, symObjAddr: 0x56C4, symBinAddr: 0x100009178, symSize: 0x30 }
  - { offsetInCU: 0x21946, offset: 0x3C102, size: 0x8, addend: 0x0, symName: __ZNKSt3__111__wrap_iterIPdEplB7v160006El, symObjAddr: 0x56F4, symBinAddr: 0x1000091A8, symSize: 0x3C }
  - { offsetInCU: 0x21989, offset: 0x3C145, size: 0x8, addend: 0x0, symName: __ZNSt3__16vectorIdNS_9allocatorIdEEE3endB7v160006Ev, symObjAddr: 0x5730, symBinAddr: 0x1000091E4, symSize: 0x30 }
  - { offsetInCU: 0x219B1, offset: 0x3C16D, size: 0x8, addend: 0x0, symName: __ZN2cv3VecIfLi3EEC1Efff, symObjAddr: 0x578C, symBinAddr: 0x100009240, symSize: 0x44 }
  - { offsetInCU: 0x21A0D, offset: 0x3C1C9, size: 0x8, addend: 0x0, symName: __ZNK2cv3VecIfLi3EEcvNS0_IT_Li3EEEIdEEv, symObjAddr: 0x57D0, symBinAddr: 0x100009284, symSize: 0x88 }
  - { offsetInCU: 0x21A6E, offset: 0x3C22A, size: 0x8, addend: 0x0, symName: __ZN2cv3VecIfLi2EEC1Eff, symObjAddr: 0x5858, symBinAddr: 0x10000930C, symSize: 0x3C }
  - { offsetInCU: 0x21ABA, offset: 0x3C276, size: 0x8, addend: 0x0, symName: __ZNK2cv3VecIfLi2EEcvNS0_IT_Li2EEEIdEEv, symObjAddr: 0x5894, symBinAddr: 0x100009348, symSize: 0x88 }
  - { offsetInCU: 0x21B1B, offset: 0x3C2D7, size: 0x8, addend: 0x0, symName: __ZN2cv3VecIdLi3EEixEi, symObjAddr: 0x5C50, symBinAddr: 0x100009704, symSize: 0x20 }
  - { offsetInCU: 0x21B53, offset: 0x3C30F, size: 0x8, addend: 0x0, symName: __ZN2cv3VecIhLi3EEC1Ehhh, symObjAddr: 0x5C70, symBinAddr: 0x100009724, symSize: 0x44 }
  - { offsetInCU: 0x21BAF, offset: 0x3C36B, size: 0x8, addend: 0x0, symName: __ZN2cv3VecIdLi2EEixEi, symObjAddr: 0x5CB4, symBinAddr: 0x100009768, symSize: 0x20 }
  - { offsetInCU: 0x21BE7, offset: 0x3C3A3, size: 0x8, addend: 0x0, symName: __ZN2cv3VecIhLi2EEC1Ehh, symObjAddr: 0x5CD4, symBinAddr: 0x100009788, symSize: 0x3C }
  - { offsetInCU: 0x21C33, offset: 0x3C3EF, size: 0x8, addend: 0x0, symName: __ZNK2cv3VecIhLi3EEcvNS0_IT_Li3EEEIiEEv, symObjAddr: 0x5D10, symBinAddr: 0x1000097C4, symSize: 0x88 }
  - { offsetInCU: 0x21C94, offset: 0x3C450, size: 0x8, addend: 0x0, symName: __ZNK2cv3VecIhLi2EEcvNS0_IT_Li2EEEIiEEv, symObjAddr: 0x5D98, symBinAddr: 0x10000984C, symSize: 0x88 }
  - { offsetInCU: 0x21CF5, offset: 0x3C4B1, size: 0x8, addend: 0x0, symName: __ZNSt3__16vectorIdNS_9allocatorIdEEED1B7v160006Ev, symObjAddr: 0x5E20, symBinAddr: 0x1000098D4, symSize: 0x2C }
  - { offsetInCU: 0x21D1E, offset: 0x3C4DA, size: 0x8, addend: 0x0, symName: __ZNSt3__16vectorIN2cv3VecIiLi2EEENS_9allocatorIS3_EEED1B7v160006Ev, symObjAddr: 0x5E4C, symBinAddr: 0x100009900, symSize: 0x2C }
  - { offsetInCU: 0x21D46, offset: 0x3C502, size: 0x8, addend: 0x0, symName: __Z14jumpFloodRadiiii, symObjAddr: 0x5E78, symBinAddr: 0x10000992C, symSize: 0x138 }
  - { offsetInCU: 0x21D98, offset: 0x3C554, size: 0x8, addend: 0x0, symName: __ZNSt3__16vectorIiNS_9allocatorIiEEEC1B7v160006ESt16initializer_listIiE, symObjAddr: 0x5FB0, symBinAddr: 0x100009A64, symSize: 0x3C }
  - { offsetInCU: 0x21DD4, offset: 0x3C590, size: 0x8, addend: 0x0, symName: __ZNSt3__16vectorIiNS_9allocatorIiEEE4backB7v160006Ev, symObjAddr: 0x5FEC, symBinAddr: 0x100009AA0, symSize: 0x1C }
  - { offsetInCU: 0x21DFA, offset: 0x3C5B6, size: 0x8, addend: 0x0, symName: __ZNSt3__16vectorIiNS_9allocatorIiEEE9push_backB7v160006EOi, symObjAddr: 0x6008, symBinAddr: 0x100009ABC, symSize: 0x6C }
  - { offsetInCU: 0x21E32, offset: 0x3C5EE, size: 0x8, addend: 0x0, symName: __ZNSt3__16vectorIiNS_9allocatorIiEEED1B7v160006Ev, symObjAddr: 0x6074, symBinAddr: 0x100009B28, symSize: 0x2C }
  - { offsetInCU: 0x21E5B, offset: 0x3C617, size: 0x8, addend: 0x0, symName: __ZN19PatchMatchInpainter26approximateNearestNeighborEi14AlgorithmStageRdNSt3__18optionalINS2_17reference_wrapperIN2cv3MatEEEEES8_, symObjAddr: 0x60A0, symBinAddr: 0x100009B54, symSize: 0xE7C }
  - { offsetInCU: 0x22218, offset: 0x3C9D4, size: 0x8, addend: 0x0, symName: __ZNKSt3__16vectorIiNS_9allocatorIiEEE4sizeB7v160006Ev, symObjAddr: 0x6F48, symBinAddr: 0x10000A9FC, symSize: 0x28 }
  - { offsetInCU: 0x2223E, offset: 0x3C9FA, size: 0x8, addend: 0x0, symName: __ZNSt3__16vectorIiNS_9allocatorIiEEEixB7v160006Em, symObjAddr: 0x6F70, symBinAddr: 0x10000AA24, symSize: 0x24 }
  - { offsetInCU: 0x22275, offset: 0x3CA31, size: 0x8, addend: 0x0, symName: __Z16maskBoundingRectRN2cv3MatE, symObjAddr: 0x7028, symBinAddr: 0x10000AADC, symSize: 0x15C }
  - { offsetInCU: 0x22324, offset: 0x3CAE0, size: 0x8, addend: 0x0, symName: __ZN2cv5Rect_IiEC1Eiiii, symObjAddr: 0x71DC, symBinAddr: 0x10000AC90, symSize: 0x4C }
  - { offsetInCU: 0x2238F, offset: 0x3CB4B, size: 0x8, addend: 0x0, symName: __Z12nonEmptyMaskRN2cv3MatE, symObjAddr: 0x7228, symBinAddr: 0x10000ACDC, symSize: 0xD8 }
  - { offsetInCU: 0x223FD, offset: 0x3CBB9, size: 0x8, addend: 0x0, symName: __Z12boundaryMaskRN2cv3MatES1_NSt3__18optionalINS2_17reference_wrapperIS0_EEEE, symObjAddr: 0x7300, symBinAddr: 0x10000ADB4, symSize: 0x2AC }
  - { offsetInCU: 0x22473, offset: 0x3CC2F, size: 0x8, addend: 0x0, symName: __ZN19PatchMatchInpainter13onionPeelInitEv, symObjAddr: 0x75AC, symBinAddr: 0x10000B060, symSize: 0xD48 }
  - { offsetInCU: 0x225AF, offset: 0x3CD6B, size: 0x8, addend: 0x0, symName: __ZNSt3__18optionalINS_17reference_wrapperIN2cv3MatEEEEC1B7v160006IS4_Li0EEEOT_, symObjAddr: 0x8320, symBinAddr: 0x10000BDD4, symSize: 0x34 }
  - { offsetInCU: 0x225F8, offset: 0x3CDB4, size: 0x8, addend: 0x0, symName: __ZNK2cv7MatSizeclEv, symObjAddr: 0x8354, symBinAddr: 0x10000BE08, symSize: 0x3C }
  - { offsetInCU: 0x22621, offset: 0x3CDDD, size: 0x8, addend: 0x0, symName: __ZN19PatchMatchInpainter7inpaintEv, symObjAddr: 0x8390, symBinAddr: 0x10000BE44, symSize: 0x7AC }
  - { offsetInCU: 0x227D2, offset: 0x3CF8E, size: 0x8, addend: 0x0, symName: __ZNSt3__16vectorIiNS_9allocatorIiEEEC1B7v160006Ev, symObjAddr: 0x8B3C, symBinAddr: 0x10000C5F0, symSize: 0x2C }
  - { offsetInCU: 0x227FB, offset: 0x3CFB7, size: 0x8, addend: 0x0, symName: __ZNSt3__16vectorINS0_IdNS_9allocatorIdEEEENS1_IS3_EEE9push_backB7v160006EOS3_, symObjAddr: 0x8B68, symBinAddr: 0x10000C61C, symSize: 0x6C }
  - { offsetInCU: 0x22833, offset: 0x3CFEF, size: 0x8, addend: 0x0, symName: __ZNSt3__16vectorIdNS_9allocatorIdEEEC1B7v160006Ev, symObjAddr: 0x8BD4, symBinAddr: 0x10000C688, symSize: 0x2C }
  - { offsetInCU: 0x2285C, offset: 0x3D018, size: 0x8, addend: 0x0, symName: __ZNSt3__18optionalINS_17reference_wrapperIN2cv3MatEEEEC1B7v160006ENS_9nullopt_tE, symObjAddr: 0x8C00, symBinAddr: 0x10000C6B4, symSize: 0x2C }
  - { offsetInCU: 0x22891, offset: 0x3D04D, size: 0x8, addend: 0x0, symName: __ZNSt3__16vectorINS0_IdNS_9allocatorIdEEEENS1_IS3_EEEixB7v160006Em, symObjAddr: 0x8C2C, symBinAddr: 0x10000C6E0, symSize: 0x2C }
  - { offsetInCU: 0x228C9, offset: 0x3D085, size: 0x8, addend: 0x0, symName: __ZNSt3__16vectorIdNS_9allocatorIdEEE9push_backB7v160006ERKd, symObjAddr: 0x8C58, symBinAddr: 0x10000C70C, symSize: 0x6C }
  - { offsetInCU: 0x22901, offset: 0x3D0BD, size: 0x8, addend: 0x0, symName: __ZN19PatchMatchInpainter15upsampleZeroPadERKN2cv3MatEib, symObjAddr: 0x8CC4, symBinAddr: 0x10000C778, symSize: 0x2A4 }
  - { offsetInCU: 0x22990, offset: 0x3D14C, size: 0x8, addend: 0x0, symName: __ZN11TimingStats11prettyPrintEv, symObjAddr: 0x8F68, symBinAddr: 0x10000CA1C, symSize: 0x348 }
  - { offsetInCU: 0x22A6E, offset: 0x3D22A, size: 0x8, addend: 0x0, symName: __ZN19PatchMatchInpainterC2E16PatchMatchParamsN2cv3MatES2_, symObjAddr: 0x92B0, symBinAddr: 0x10000CD64, symSize: 0x254 }
  - { offsetInCU: 0x22AF7, offset: 0x3D2B3, size: 0x8, addend: 0x0, symName: __ZN11TimingStatsC1Ev, symObjAddr: 0x9504, symBinAddr: 0x10000CFB8, symSize: 0x2C }
  - { offsetInCU: 0x22B2D, offset: 0x3D2E9, size: 0x8, addend: 0x0, symName: __ZN11TimingStatsaSEOS_, symObjAddr: 0x9530, symBinAddr: 0x10000CFE4, symSize: 0x70 }
  - { offsetInCU: 0x22B5E, offset: 0x3D31A, size: 0x8, addend: 0x0, symName: __ZN11TimingStatsD1Ev, symObjAddr: 0x95A0, symBinAddr: 0x10000D054, symSize: 0x2C }
  - { offsetInCU: 0x22B8A, offset: 0x3D346, size: 0x8, addend: 0x0, symName: __ZN19PatchMatchInpainterC1E16PatchMatchParamsN2cv3MatES2_, symObjAddr: 0x95CC, symBinAddr: 0x10000D080, symSize: 0x44 }
  - { offsetInCU: 0x22BEA, offset: 0x3D3A6, size: 0x8, addend: 0x0, symName: __ZN19PatchMatchInpainterD2Ev, symObjAddr: 0x9610, symBinAddr: 0x10000D0C4, symSize: 0x374 }
  - { offsetInCU: 0x22C17, offset: 0x3D3D3, size: 0x8, addend: 0x0, symName: __ZN19PatchMatchInpainterD1Ev, symObjAddr: 0x9984, symBinAddr: 0x10000D438, symSize: 0x2C }
  - { offsetInCU: 0x22C44, offset: 0x3D400, size: 0x8, addend: 0x0, symName: __ZN2cv7MatExprD2Ev, symObjAddr: 0x9AE0, symBinAddr: 0x10000D464, symSize: 0x48 }
  - { offsetInCU: 0x22C71, offset: 0x3D42D, size: 0x8, addend: 0x0, symName: __ZN2cv11_InputArrayC2ERKNSt3__16vectorINS_3MatENS1_9allocatorIS3_EEEE, symObjAddr: 0x9BD0, symBinAddr: 0x10000D4AC, symSize: 0x44 }
  - { offsetInCU: 0x22CAB, offset: 0x3D467, size: 0x8, addend: 0x0, symName: __ZN2cv12_OutputArrayC2ERNSt3__16vectorINS_3MatENS1_9allocatorIS3_EEEE, symObjAddr: 0x9C14, symBinAddr: 0x10000D4F0, symSize: 0x40 }
  - { offsetInCU: 0x22CE5, offset: 0x3D4A1, size: 0x8, addend: 0x0, symName: __ZN10CycleTimer12currentTicksEv, symObjAddr: 0x9C54, symBinAddr: 0x10000D530, symSize: 0x14 }
  - { offsetInCU: 0x22CF9, offset: 0x3D4B5, size: 0x8, addend: 0x0, symName: __ZNKSt3__18optionalINS_17reference_wrapperIN2cv3MatEEEEcvbB7v160006Ev, symObjAddr: 0x9CF4, symBinAddr: 0x10000D5D0, symSize: 0x28 }
  - { offsetInCU: 0x22D1F, offset: 0x3D4DB, size: 0x8, addend: 0x0, symName: __ZNKSt3__123__optional_storage_baseINS_17reference_wrapperIN2cv3MatEEELb0EE9has_valueB7v160006Ev, symObjAddr: 0x9D1C, symBinAddr: 0x10000D5F8, symSize: 0x1C }
  - { offsetInCU: 0x22D45, offset: 0x3D501, size: 0x8, addend: 0x0, symName: __ZNRSt3__123__optional_storage_baseINS_17reference_wrapperIN2cv3MatEEELb0EE5__getB7v160006Ev, symObjAddr: 0x9D38, symBinAddr: 0x10000D614, symSize: 0x14 }
  - { offsetInCU: 0x22D6B, offset: 0x3D527, size: 0x8, addend: 0x0, symName: __ZNK2cv5Rect_IiE5emptyEv, symObjAddr: 0xA074, symBinAddr: 0x10000D950, symSize: 0x54 }
  - { offsetInCU: 0x22D93, offset: 0x3D54F, size: 0x8, addend: 0x0, symName: __ZN2cv5Rect_IiEC1Ev, symObjAddr: 0xA0C8, symBinAddr: 0x10000D9A4, symSize: 0x2C }
  - { offsetInCU: 0x22DBF, offset: 0x3D57B, size: 0x8, addend: 0x0, symName: __ZN2cv5Rect_IiEC2Ev, symObjAddr: 0xA0F4, symBinAddr: 0x10000D9D0, symSize: 0x24 }
  - { offsetInCU: 0x22DEB, offset: 0x3D5A7, size: 0x8, addend: 0x0, symName: __ZNSt3__111__wrap_iterIPdEpLB7v160006El, symObjAddr: 0xA118, symBinAddr: 0x10000D9F4, symSize: 0x28 }
  - { offsetInCU: 0x22E29, offset: 0x3D5E5, size: 0x8, addend: 0x0, symName: __ZNKSt3__16__lessIddEclB7v160006ERKdS3_, symObjAddr: 0xA194, symBinAddr: 0x10000DA70, symSize: 0x34 }
  - { offsetInCU: 0x22E6B, offset: 0x3D627, size: 0x8, addend: 0x0, symName: __ZL7cvRoundd, symObjAddr: 0xA1C8, symBinAddr: 0x10000DAA4, symSize: 0x28 }
  - { offsetInCU: 0x22EA2, offset: 0x3D65E, size: 0x8, addend: 0x0, symName: __ZNKSt3__16__lessImmEclB7v160006ERKmS3_, symObjAddr: 0xA2A4, symBinAddr: 0x10000DB80, symSize: 0x34 }
  - { offsetInCU: 0x22EEE, offset: 0x3D6AA, size: 0x8, addend: 0x0, symName: __ZNKSt3__16__lessIiiEclB7v160006ERKiS3_, symObjAddr: 0xA32C, symBinAddr: 0x10000DC08, symSize: 0x34 }
  - { offsetInCU: 0x22F30, offset: 0x3D6EC, size: 0x8, addend: 0x0, symName: __ZNSt3__18optionalINS_17reference_wrapperIN2cv3MatEEEEC2B7v160006IS4_Li0EEEOT_, symObjAddr: 0xA3B4, symBinAddr: 0x10000DC90, symSize: 0x34 }
  - { offsetInCU: 0x22F7E, offset: 0x3D73A, size: 0x8, addend: 0x0, symName: __ZNSt3__127__optional_move_assign_baseINS_17reference_wrapperIN2cv3MatEEELb1EECI2NS_24__optional_destruct_baseIS4_Lb1EEEIJS4_EEENS_10in_place_tEDpOT_, symObjAddr: 0xA3E8, symBinAddr: 0x10000DCC4, symSize: 0x34 }
  - { offsetInCU: 0x22FC2, offset: 0x3D77E, size: 0x8, addend: 0x0, symName: __ZNSt3__127__optional_copy_assign_baseINS_17reference_wrapperIN2cv3MatEEELb1EECI2NS_24__optional_destruct_baseIS4_Lb1EEEIJS4_EEENS_10in_place_tEDpOT_, symObjAddr: 0xA41C, symBinAddr: 0x10000DCF8, symSize: 0x34 }
  - { offsetInCU: 0x23006, offset: 0x3D7C2, size: 0x8, addend: 0x0, symName: __ZNSt3__120__optional_move_baseINS_17reference_wrapperIN2cv3MatEEELb1EECI2NS_24__optional_destruct_baseIS4_Lb1EEEIJS4_EEENS_10in_place_tEDpOT_, symObjAddr: 0xA450, symBinAddr: 0x10000DD2C, symSize: 0x34 }
  - { offsetInCU: 0x2304A, offset: 0x3D806, size: 0x8, addend: 0x0, symName: __ZNSt3__120__optional_copy_baseINS_17reference_wrapperIN2cv3MatEEELb1EECI2NS_24__optional_destruct_baseIS4_Lb1EEEIJS4_EEENS_10in_place_tEDpOT_, symObjAddr: 0xA484, symBinAddr: 0x10000DD60, symSize: 0x34 }
  - { offsetInCU: 0x23089, offset: 0x3D845, size: 0x8, addend: 0x0, symName: __ZNSt3__123__optional_storage_baseINS_17reference_wrapperIN2cv3MatEEELb0EECI2NS_24__optional_destruct_baseIS4_Lb1EEEIJS4_EEENS_10in_place_tEDpOT_, symObjAddr: 0xA4B8, symBinAddr: 0x10000DD94, symSize: 0x34 }
  - { offsetInCU: 0x230C8, offset: 0x3D884, size: 0x8, addend: 0x0, symName: __ZNSt3__124__optional_destruct_baseINS_17reference_wrapperIN2cv3MatEEELb1EEC2B7v160006IJS4_EEENS_10in_place_tEDpOT_, symObjAddr: 0xA4EC, symBinAddr: 0x10000DDC8, symSize: 0x2C }
  - { offsetInCU: 0x2311A, offset: 0x3D8D6, size: 0x8, addend: 0x0, symName: __ZNSt3__18optionalINS_17reference_wrapperIN2cv3MatEEEEC2B7v160006ENS_9nullopt_tE, symObjAddr: 0xA518, symBinAddr: 0x10000DDF4, symSize: 0x2C }
  - { offsetInCU: 0x2314F, offset: 0x3D90B, size: 0x8, addend: 0x0, symName: __ZNSt3__127__optional_move_assign_baseINS_17reference_wrapperIN2cv3MatEEELb1EEC2Ev, symObjAddr: 0xA544, symBinAddr: 0x10000DE20, symSize: 0x2C }
  - { offsetInCU: 0x2317C, offset: 0x3D938, size: 0x8, addend: 0x0, symName: __ZNSt3__127__optional_copy_assign_baseINS_17reference_wrapperIN2cv3MatEEELb1EEC2Ev, symObjAddr: 0xA570, symBinAddr: 0x10000DE4C, symSize: 0x2C }
  - { offsetInCU: 0x231A9, offset: 0x3D965, size: 0x8, addend: 0x0, symName: __ZNSt3__120__optional_move_baseINS_17reference_wrapperIN2cv3MatEEELb1EEC2Ev, symObjAddr: 0xA59C, symBinAddr: 0x10000DE78, symSize: 0x2C }
  - { offsetInCU: 0x231D6, offset: 0x3D992, size: 0x8, addend: 0x0, symName: __ZNSt3__120__optional_copy_baseINS_17reference_wrapperIN2cv3MatEEELb1EEC2Ev, symObjAddr: 0xA5C8, symBinAddr: 0x10000DEA4, symSize: 0x2C }
  - { offsetInCU: 0x23203, offset: 0x3D9BF, size: 0x8, addend: 0x0, symName: __ZNSt3__123__optional_storage_baseINS_17reference_wrapperIN2cv3MatEEELb0EEC2Ev, symObjAddr: 0xA5F4, symBinAddr: 0x10000DED0, symSize: 0x2C }
  - { offsetInCU: 0x23230, offset: 0x3D9EC, size: 0x8, addend: 0x0, symName: __ZNSt3__124__optional_destruct_baseINS_17reference_wrapperIN2cv3MatEEELb1EEC2B7v160006Ev, symObjAddr: 0xA620, symBinAddr: 0x10000DEFC, symSize: 0x1C }
  - { offsetInCU: 0x2325A, offset: 0x3DA16, size: 0x8, addend: 0x0, symName: __ZNKSt3__111__wrap_iterIPdEdeB7v160006Ev, symObjAddr: 0xA76C, symBinAddr: 0x10000E048, symSize: 0x18 }
  - { offsetInCU: 0x23280, offset: 0x3DA3C, size: 0x8, addend: 0x0, symName: __ZNSt3__111__wrap_iterIPdEppB7v160006Ev, symObjAddr: 0xA784, symBinAddr: 0x10000E060, symSize: 0x20 }
  - { offsetInCU: 0x232A6, offset: 0x3DA62, size: 0x8, addend: 0x0, symName: __ZNKSt3__111__wrap_iterIPdE4baseB7v160006Ev, symObjAddr: 0xA7EC, symBinAddr: 0x10000E0C8, symSize: 0x18 }
  - { offsetInCU: 0x232CC, offset: 0x3DA88, size: 0x8, addend: 0x0, symName: __ZN11TimingStatsC2Ev, symObjAddr: 0xA804, symBinAddr: 0x10000E0E0, symSize: 0x48 }
  - { offsetInCU: 0x232F8, offset: 0x3DAB4, size: 0x8, addend: 0x0, symName: __ZNSt3__16vectorINS0_IdNS_9allocatorIdEEEENS1_IS3_EEEC1B7v160006Ev, symObjAddr: 0xA84C, symBinAddr: 0x10000E128, symSize: 0x2C }
  - { offsetInCU: 0x23321, offset: 0x3DADD, size: 0x8, addend: 0x0, symName: __ZNSt3__16vectorINS0_IdNS_9allocatorIdEEEENS1_IS3_EEEC2B7v160006Ev, symObjAddr: 0xA878, symBinAddr: 0x10000E154, symSize: 0x58 }
  - { offsetInCU: 0x23354, offset: 0x3DB10, size: 0x8, addend: 0x0, symName: __ZNSt3__117__compressed_pairIPNS_6vectorIdNS_9allocatorIdEEEENS2_IS4_EEEC1B7v160006IDnNS_18__default_init_tagEEEOT_OT0_, symObjAddr: 0xA8D0, symBinAddr: 0x10000E1AC, symSize: 0x3C }
  - { offsetInCU: 0x233AB, offset: 0x3DB67, size: 0x8, addend: 0x0, symName: __ZNSt3__117__compressed_pairIPNS_6vectorIdNS_9allocatorIdEEEENS2_IS4_EEEC2B7v160006IDnNS_18__default_init_tagEEEOT_OT0_, symObjAddr: 0xA928, symBinAddr: 0x10000E1F8, symSize: 0x40 }
  - { offsetInCU: 0x23402, offset: 0x3DBBE, size: 0x8, addend: 0x0, symName: __ZNSt3__122__compressed_pair_elemIPNS_6vectorIdNS_9allocatorIdEEEELi0ELb0EEC2B7v160006IDnvEEOT_, symObjAddr: 0xA968, symBinAddr: 0x10000E238, symSize: 0x1C }
  - { offsetInCU: 0x23445, offset: 0x3DC01, size: 0x8, addend: 0x0, symName: __ZNSt3__122__compressed_pair_elemINS_9allocatorINS_6vectorIdNS1_IdEEEEEELi1ELb1EEC2B7v160006ENS_18__default_init_tagE, symObjAddr: 0xA984, symBinAddr: 0x10000E254, symSize: 0x2C }
  - { offsetInCU: 0x23479, offset: 0x3DC35, size: 0x8, addend: 0x0, symName: __ZNSt3__19allocatorINS_6vectorIdNS0_IdEEEEEC2B7v160006Ev, symObjAddr: 0xA9B0, symBinAddr: 0x10000E280, symSize: 0x2C }
  - { offsetInCU: 0x234A2, offset: 0x3DC5E, size: 0x8, addend: 0x0, symName: __ZNSt3__116__non_trivial_ifILb1ENS_9allocatorINS_6vectorIdNS1_IdEEEEEEEC2B7v160006Ev, symObjAddr: 0xA9DC, symBinAddr: 0x10000E2AC, symSize: 0x14 }
  - { offsetInCU: 0x234CC, offset: 0x3DC88, size: 0x8, addend: 0x0, symName: __ZNSt3__16vectorIdNS_9allocatorIdEEEaSB7v160006EOS3_, symObjAddr: 0xA9F0, symBinAddr: 0x10000E2C0, symSize: 0x34 }
  - { offsetInCU: 0x23504, offset: 0x3DCC0, size: 0x8, addend: 0x0, symName: __ZNSt3__16vectorINS0_IdNS_9allocatorIdEEEENS1_IS3_EEEaSB7v160006EOS5_, symObjAddr: 0xAA24, symBinAddr: 0x10000E2F4, symSize: 0x34 }
  - { offsetInCU: 0x2353C, offset: 0x3DCF8, size: 0x8, addend: 0x0, symName: __ZNSt3__16vectorIdNS_9allocatorIdEEE13__move_assignERS3_NS_17integral_constantIbLb1EEE, symObjAddr: 0xAA58, symBinAddr: 0x10000E328, symSize: 0xAC }
  - { offsetInCU: 0x23580, offset: 0x3DD3C, size: 0x8, addend: 0x0, symName: __ZNSt3__16vectorIdNS_9allocatorIdEEE13__vdeallocateEv, symObjAddr: 0xAB04, symBinAddr: 0x10000E3D4, symSize: 0x8C }
  - { offsetInCU: 0x235A8, offset: 0x3DD64, size: 0x8, addend: 0x0, symName: __ZNSt3__16vectorIdNS_9allocatorIdEEE19__move_assign_allocB7v160006ERS3_, symObjAddr: 0xAB90, symBinAddr: 0x10000E460, symSize: 0x2C }
  - { offsetInCU: 0x235DE, offset: 0x3DD9A, size: 0x8, addend: 0x0, symName: __ZNSt3__16vectorIdNS_9allocatorIdEEE9__end_capB7v160006Ev, symObjAddr: 0xABBC, symBinAddr: 0x10000E48C, symSize: 0x28 }
  - { offsetInCU: 0x23604, offset: 0x3DDC0, size: 0x8, addend: 0x0, symName: __ZNSt3__16vectorIdNS_9allocatorIdEEE5clearB7v160006Ev, symObjAddr: 0xABF8, symBinAddr: 0x10000E4C8, symSize: 0x54 }
  - { offsetInCU: 0x23639, offset: 0x3DDF5, size: 0x8, addend: 0x0, symName: __ZNSt3__116allocator_traitsINS_9allocatorIdEEE10deallocateB7v160006ERS2_Pdm, symObjAddr: 0xAC4C, symBinAddr: 0x10000E51C, symSize: 0x34 }
  - { offsetInCU: 0x2367F, offset: 0x3DE3B, size: 0x8, addend: 0x0, symName: __ZNSt3__16vectorIdNS_9allocatorIdEEE7__allocB7v160006Ev, symObjAddr: 0xAC80, symBinAddr: 0x10000E550, symSize: 0x28 }
  - { offsetInCU: 0x236A5, offset: 0x3DE61, size: 0x8, addend: 0x0, symName: __ZNKSt3__16vectorIdNS_9allocatorIdEEE8capacityB7v160006Ev, symObjAddr: 0xACA8, symBinAddr: 0x10000E578, symSize: 0x40 }
  - { offsetInCU: 0x236CB, offset: 0x3DE87, size: 0x8, addend: 0x0, symName: __ZNSt3__16vectorIdNS_9allocatorIdEEE7__clearB7v160006Ev, symObjAddr: 0xACE8, symBinAddr: 0x10000E5B8, symSize: 0x28 }
  - { offsetInCU: 0x236F1, offset: 0x3DEAD, size: 0x8, addend: 0x0, symName: __ZNKSt3__16vectorIdNS_9allocatorIdEEE17__annotate_shrinkB7v160006Em, symObjAddr: 0xAD10, symBinAddr: 0x10000E5E0, symSize: 0xB4 }
  - { offsetInCU: 0x23727, offset: 0x3DEE3, size: 0x8, addend: 0x0, symName: __ZNSt3__16vectorIdNS_9allocatorIdEEE22__base_destruct_at_endB7v160006EPd, symObjAddr: 0xADD4, symBinAddr: 0x10000E6A4, symSize: 0x8C }
  - { offsetInCU: 0x2376C, offset: 0x3DF28, size: 0x8, addend: 0x0, symName: __ZNSt3__116allocator_traitsINS_9allocatorIdEEE7destroyB7v160006IdvEEvRS2_PT_, symObjAddr: 0xAE60, symBinAddr: 0x10000E730, symSize: 0x2C }
  - { offsetInCU: 0x237AD, offset: 0x3DF69, size: 0x8, addend: 0x0, symName: __ZNSt3__19allocatorIdE7destroyB7v160006EPd, symObjAddr: 0xAEA0, symBinAddr: 0x10000E770, symSize: 0x14 }
  - { offsetInCU: 0x237E1, offset: 0x3DF9D, size: 0x8, addend: 0x0, symName: __ZNKSt3__16vectorIdNS_9allocatorIdEEE31__annotate_contiguous_containerB7v160006EPKvS5_S5_S5_, symObjAddr: 0xAEB4, symBinAddr: 0x10000E784, symSize: 0x20 }
  - { offsetInCU: 0x23837, offset: 0x3DFF3, size: 0x8, addend: 0x0, symName: __ZNKSt3__16vectorIdNS_9allocatorIdEEE4dataB7v160006Ev, symObjAddr: 0xAED4, symBinAddr: 0x10000E7A4, symSize: 0x28 }
  - { offsetInCU: 0x2385D, offset: 0x3E019, size: 0x8, addend: 0x0, symName: __ZNSt3__19allocatorIdE10deallocateB7v160006EPdm, symObjAddr: 0xAEFC, symBinAddr: 0x10000E7CC, symSize: 0x40 }
  - { offsetInCU: 0x2389F, offset: 0x3E05B, size: 0x8, addend: 0x0, symName: __ZNSt3__117__compressed_pairIPdNS_9allocatorIdEEE6secondB7v160006Ev, symObjAddr: 0xB064, symBinAddr: 0x10000E934, symSize: 0x24 }
  - { offsetInCU: 0x238C5, offset: 0x3E081, size: 0x8, addend: 0x0, symName: __ZNSt3__122__compressed_pair_elemINS_9allocatorIdEELi1ELb1EE5__getB7v160006Ev, symObjAddr: 0xB088, symBinAddr: 0x10000E958, symSize: 0x14 }
  - { offsetInCU: 0x238EB, offset: 0x3E0A7, size: 0x8, addend: 0x0, symName: __ZNKSt3__16vectorIdNS_9allocatorIdEEE9__end_capB7v160006Ev, symObjAddr: 0xB09C, symBinAddr: 0x10000E96C, symSize: 0x28 }
  - { offsetInCU: 0x23911, offset: 0x3E0CD, size: 0x8, addend: 0x0, symName: __ZNKSt3__117__compressed_pairIPdNS_9allocatorIdEEE5firstB7v160006Ev, symObjAddr: 0xB0C4, symBinAddr: 0x10000E994, symSize: 0x24 }
  - { offsetInCU: 0x23937, offset: 0x3E0F3, size: 0x8, addend: 0x0, symName: __ZNKSt3__122__compressed_pair_elemIPdLi0ELb0EE5__getB7v160006Ev, symObjAddr: 0xB0E8, symBinAddr: 0x10000E9B8, symSize: 0x14 }
  - { offsetInCU: 0x2395D, offset: 0x3E119, size: 0x8, addend: 0x0, symName: __ZNSt3__16vectorIdNS_9allocatorIdEEE19__move_assign_allocB7v160006ERS3_NS_17integral_constantIbLb1EEE, symObjAddr: 0xB0FC, symBinAddr: 0x10000E9CC, symSize: 0x38 }
  - { offsetInCU: 0x2399F, offset: 0x3E15B, size: 0x8, addend: 0x0, symName: __ZNSt3__117__compressed_pairIPdNS_9allocatorIdEEE5firstB7v160006Ev, symObjAddr: 0xB134, symBinAddr: 0x10000EA04, symSize: 0x24 }
  - { offsetInCU: 0x239C5, offset: 0x3E181, size: 0x8, addend: 0x0, symName: __ZNSt3__122__compressed_pair_elemIPdLi0ELb0EE5__getB7v160006Ev, symObjAddr: 0xB158, symBinAddr: 0x10000EA28, symSize: 0x14 }
  - { offsetInCU: 0x239EB, offset: 0x3E1A7, size: 0x8, addend: 0x0, symName: __ZNSt3__16vectorINS0_IdNS_9allocatorIdEEEENS1_IS3_EEE13__move_assignERS5_NS_17integral_constantIbLb1EEE, symObjAddr: 0xB16C, symBinAddr: 0x10000EA3C, symSize: 0xAC }
  - { offsetInCU: 0x23A2F, offset: 0x3E1EB, size: 0x8, addend: 0x0, symName: __ZNSt3__16vectorINS0_IdNS_9allocatorIdEEEENS1_IS3_EEE13__vdeallocateEv, symObjAddr: 0xB218, symBinAddr: 0x10000EAE8, symSize: 0x8C }
  - { offsetInCU: 0x23A57, offset: 0x3E213, size: 0x8, addend: 0x0, symName: __ZNSt3__16vectorINS0_IdNS_9allocatorIdEEEENS1_IS3_EEE19__move_assign_allocB7v160006ERS5_, symObjAddr: 0xB2A4, symBinAddr: 0x10000EB74, symSize: 0x2C }
  - { offsetInCU: 0x23A8D, offset: 0x3E249, size: 0x8, addend: 0x0, symName: __ZNSt3__16vectorINS0_IdNS_9allocatorIdEEEENS1_IS3_EEE9__end_capB7v160006Ev, symObjAddr: 0xB2D0, symBinAddr: 0x10000EBA0, symSize: 0x28 }
  - { offsetInCU: 0x23AB3, offset: 0x3E26F, size: 0x8, addend: 0x0, symName: __ZNSt3__16vectorINS0_IdNS_9allocatorIdEEEENS1_IS3_EEE5clearB7v160006Ev, symObjAddr: 0xB30C, symBinAddr: 0x10000EBDC, symSize: 0x54 }
  - { offsetInCU: 0x23AE8, offset: 0x3E2A4, size: 0x8, addend: 0x0, symName: __ZNSt3__116allocator_traitsINS_9allocatorINS_6vectorIdNS1_IdEEEEEEE10deallocateB7v160006ERS5_PS4_m, symObjAddr: 0xB360, symBinAddr: 0x10000EC30, symSize: 0x34 }
  - { offsetInCU: 0x23B2E, offset: 0x3E2EA, size: 0x8, addend: 0x0, symName: __ZNSt3__16vectorINS0_IdNS_9allocatorIdEEEENS1_IS3_EEE7__allocB7v160006Ev, symObjAddr: 0xB394, symBinAddr: 0x10000EC64, symSize: 0x28 }
  - { offsetInCU: 0x23B54, offset: 0x3E310, size: 0x8, addend: 0x0, symName: __ZNKSt3__16vectorINS0_IdNS_9allocatorIdEEEENS1_IS3_EEE8capacityB7v160006Ev, symObjAddr: 0xB3BC, symBinAddr: 0x10000EC8C, symSize: 0x40 }
  - { offsetInCU: 0x23B7A, offset: 0x3E336, size: 0x8, addend: 0x0, symName: __ZNKSt3__16vectorINS0_IdNS_9allocatorIdEEEENS1_IS3_EEE4sizeB7v160006Ev, symObjAddr: 0xB3FC, symBinAddr: 0x10000ECCC, symSize: 0x28 }
  - { offsetInCU: 0x23BA0, offset: 0x3E35C, size: 0x8, addend: 0x0, symName: __ZNSt3__16vectorINS0_IdNS_9allocatorIdEEEENS1_IS3_EEE7__clearB7v160006Ev, symObjAddr: 0xB424, symBinAddr: 0x10000ECF4, symSize: 0x28 }
  - { offsetInCU: 0x23BC6, offset: 0x3E382, size: 0x8, addend: 0x0, symName: __ZNKSt3__16vectorINS0_IdNS_9allocatorIdEEEENS1_IS3_EEE17__annotate_shrinkB7v160006Em, symObjAddr: 0xB44C, symBinAddr: 0x10000ED1C, symSize: 0xD0 }
  - { offsetInCU: 0x23BFC, offset: 0x3E3B8, size: 0x8, addend: 0x0, symName: __ZNSt3__16vectorINS0_IdNS_9allocatorIdEEEENS1_IS3_EEE22__base_destruct_at_endB7v160006EPS3_, symObjAddr: 0xB52C, symBinAddr: 0x10000EDFC, symSize: 0x8C }
  - { offsetInCU: 0x23C41, offset: 0x3E3FD, size: 0x8, addend: 0x0, symName: __ZNSt3__116allocator_traitsINS_9allocatorINS_6vectorIdNS1_IdEEEEEEE7destroyB7v160006IS4_vEEvRS5_PT_, symObjAddr: 0xB5B8, symBinAddr: 0x10000EE88, symSize: 0x2C }
  - { offsetInCU: 0x23C82, offset: 0x3E43E, size: 0x8, addend: 0x0, symName: __ZNSt3__19allocatorINS_6vectorIdNS0_IdEEEEE7destroyB7v160006EPS3_, symObjAddr: 0xB5F8, symBinAddr: 0x10000EEC8, symSize: 0x28 }
  - { offsetInCU: 0x23CB6, offset: 0x3E472, size: 0x8, addend: 0x0, symName: __ZNKSt3__16vectorINS0_IdNS_9allocatorIdEEEENS1_IS3_EEE31__annotate_contiguous_containerB7v160006EPKvS7_S7_S7_, symObjAddr: 0xB620, symBinAddr: 0x10000EEF0, symSize: 0x20 }
  - { offsetInCU: 0x23D0C, offset: 0x3E4C8, size: 0x8, addend: 0x0, symName: __ZNKSt3__16vectorINS0_IdNS_9allocatorIdEEEENS1_IS3_EEE4dataB7v160006Ev, symObjAddr: 0xB640, symBinAddr: 0x10000EF10, symSize: 0x28 }
  - { offsetInCU: 0x23D32, offset: 0x3E4EE, size: 0x8, addend: 0x0, symName: __ZNSt3__19allocatorINS_6vectorIdNS0_IdEEEEE10deallocateB7v160006EPS3_m, symObjAddr: 0xB668, symBinAddr: 0x10000EF38, symSize: 0x44 }
  - { offsetInCU: 0x23D74, offset: 0x3E530, size: 0x8, addend: 0x0, symName: __ZNSt3__117__compressed_pairIPNS_6vectorIdNS_9allocatorIdEEEENS2_IS4_EEE6secondB7v160006Ev, symObjAddr: 0xB6AC, symBinAddr: 0x10000EF7C, symSize: 0x24 }
  - { offsetInCU: 0x23D9A, offset: 0x3E556, size: 0x8, addend: 0x0, symName: __ZNSt3__122__compressed_pair_elemINS_9allocatorINS_6vectorIdNS1_IdEEEEEELi1ELb1EE5__getB7v160006Ev, symObjAddr: 0xB6D0, symBinAddr: 0x10000EFA0, symSize: 0x14 }
  - { offsetInCU: 0x23DC0, offset: 0x3E57C, size: 0x8, addend: 0x0, symName: __ZNKSt3__16vectorINS0_IdNS_9allocatorIdEEEENS1_IS3_EEE9__end_capB7v160006Ev, symObjAddr: 0xB6E4, symBinAddr: 0x10000EFB4, symSize: 0x28 }
  - { offsetInCU: 0x23DE6, offset: 0x3E5A2, size: 0x8, addend: 0x0, symName: __ZNKSt3__117__compressed_pairIPNS_6vectorIdNS_9allocatorIdEEEENS2_IS4_EEE5firstB7v160006Ev, symObjAddr: 0xB70C, symBinAddr: 0x10000EFDC, symSize: 0x24 }
  - { offsetInCU: 0x23E0C, offset: 0x3E5C8, size: 0x8, addend: 0x0, symName: __ZNKSt3__122__compressed_pair_elemIPNS_6vectorIdNS_9allocatorIdEEEELi0ELb0EE5__getB7v160006Ev, symObjAddr: 0xB730, symBinAddr: 0x10000F000, symSize: 0x14 }
  - { offsetInCU: 0x23E32, offset: 0x3E5EE, size: 0x8, addend: 0x0, symName: __ZNSt3__16vectorINS0_IdNS_9allocatorIdEEEENS1_IS3_EEE19__move_assign_allocB7v160006ERS5_NS_17integral_constantIbLb1EEE, symObjAddr: 0xB744, symBinAddr: 0x10000F014, symSize: 0x38 }
  - { offsetInCU: 0x23E74, offset: 0x3E630, size: 0x8, addend: 0x0, symName: __ZNSt3__117__compressed_pairIPNS_6vectorIdNS_9allocatorIdEEEENS2_IS4_EEE5firstB7v160006Ev, symObjAddr: 0xB77C, symBinAddr: 0x10000F04C, symSize: 0x24 }
  - { offsetInCU: 0x23E9A, offset: 0x3E656, size: 0x8, addend: 0x0, symName: __ZNSt3__122__compressed_pair_elemIPNS_6vectorIdNS_9allocatorIdEEEELi0ELb0EE5__getB7v160006Ev, symObjAddr: 0xB7A0, symBinAddr: 0x10000F070, symSize: 0x14 }
  - { offsetInCU: 0x23EC0, offset: 0x3E67C, size: 0x8, addend: 0x0, symName: __ZN11TimingStatsD2Ev, symObjAddr: 0xB7B4, symBinAddr: 0x10000F084, symSize: 0x48 }
  - { offsetInCU: 0x23EEC, offset: 0x3E6A8, size: 0x8, addend: 0x0, symName: __ZNSt3__16vectorINS0_IdNS_9allocatorIdEEEENS1_IS3_EEED1B7v160006Ev, symObjAddr: 0xB7FC, symBinAddr: 0x10000F0CC, symSize: 0x2C }
  - { offsetInCU: 0x23F15, offset: 0x3E6D1, size: 0x8, addend: 0x0, symName: __ZNSt3__16vectorINS0_IdNS_9allocatorIdEEEENS1_IS3_EEED2B7v160006Ev, symObjAddr: 0xB828, symBinAddr: 0x10000F0F8, symSize: 0x44 }
  - { offsetInCU: 0x23F3E, offset: 0x3E6FA, size: 0x8, addend: 0x0, symName: __ZNSt3__16vectorINS0_IdNS_9allocatorIdEEEENS1_IS3_EEE16__destroy_vectorC1ERS5_, symObjAddr: 0xB86C, symBinAddr: 0x10000F13C, symSize: 0x34 }
  - { offsetInCU: 0x23F77, offset: 0x3E733, size: 0x8, addend: 0x0, symName: __ZNSt3__16vectorINS0_IdNS_9allocatorIdEEEENS1_IS3_EEE16__destroy_vectorclB7v160006Ev, symObjAddr: 0xB8A0, symBinAddr: 0x10000F170, symSize: 0x9C }
  - { offsetInCU: 0x23F9D, offset: 0x3E759, size: 0x8, addend: 0x0, symName: __ZNSt3__16vectorINS0_IdNS_9allocatorIdEEEENS1_IS3_EEE16__destroy_vectorC2ERS5_, symObjAddr: 0xB93C, symBinAddr: 0x10000F20C, symSize: 0x20 }
  - { offsetInCU: 0x23FD7, offset: 0x3E793, size: 0x8, addend: 0x0, symName: __ZNKSt3__16vectorINS0_IdNS_9allocatorIdEEEENS1_IS3_EEE17__annotate_deleteB7v160006Ev, symObjAddr: 0xB95C, symBinAddr: 0x10000F22C, symSize: 0xD4 }
  - { offsetInCU: 0x23FFD, offset: 0x3E7B9, size: 0x8, addend: 0x0, symName: __ZN2cv3VecIfLi3EEC2Efff, symObjAddr: 0xBA40, symBinAddr: 0x10000F310, symSize: 0x44 }
  - { offsetInCU: 0x24059, offset: 0x3E815, size: 0x8, addend: 0x0, symName: __ZN2cv4MatxIfLi3ELi1EEC2Efff, symObjAddr: 0xBA84, symBinAddr: 0x10000F354, symSize: 0x8C }
  - { offsetInCU: 0x240CE, offset: 0x3E88A, size: 0x8, addend: 0x0, symName: __ZN2cv5Size_IiEC2Eii, symObjAddr: 0xBB2C, symBinAddr: 0x10000F3E0, symSize: 0x2C }
  - { offsetInCU: 0x2411A, offset: 0x3E8D6, size: 0x8, addend: 0x0, symName: __ZN2cv7Scalar_IdEC2Ev, symObjAddr: 0xBD18, symBinAddr: 0x10000F40C, symSize: 0x40 }
  - { offsetInCU: 0x24146, offset: 0x3E902, size: 0x8, addend: 0x0, symName: __ZN2cv11_InputArrayC2IdLi4ELi1EEERKNS_4MatxIT_XT0_EXT1_EEE, symObjAddr: 0xBE10, symBinAddr: 0x10000F44C, symSize: 0x64 }
  - { offsetInCU: 0x2419A, offset: 0x3E956, size: 0x8, addend: 0x0, symName: __ZN2cv11_InputArray4initEiPKvNS_5Size_IiEE, symObjAddr: 0xBE74, symBinAddr: 0x10000F4B0, symSize: 0x38 }
  - { offsetInCU: 0x2420A, offset: 0x3E9C6, size: 0x8, addend: 0x0, symName: __ZNKSt3__113basic_ostreamIcNS_11char_traitsIcEEE6sentrycvbB7v160006Ev, symObjAddr: 0xC098, symBinAddr: 0x10000F6D4, symSize: 0x1C }
  - { offsetInCU: 0x24230, offset: 0x3E9EC, size: 0x8, addend: 0x0, symName: __ZNSt3__119ostreambuf_iteratorIcNS_11char_traitsIcEEEC1B7v160006ERNS_13basic_ostreamIcS2_EE, symObjAddr: 0xC2F4, symBinAddr: 0x10000F930, symSize: 0x34 }
  - { offsetInCU: 0x24267, offset: 0x3EA23, size: 0x8, addend: 0x0, symName: __ZNKSt3__18ios_base5flagsB7v160006Ev, symObjAddr: 0xC328, symBinAddr: 0x10000F964, symSize: 0x18 }
  - { offsetInCU: 0x2428F, offset: 0x3EA4B, size: 0x8, addend: 0x0, symName: __ZNKSt3__19basic_iosIcNS_11char_traitsIcEEE4fillB7v160006Ev, symObjAddr: 0xC340, symBinAddr: 0x10000F97C, symSize: 0x64 }
  - { offsetInCU: 0x242B7, offset: 0x3EA73, size: 0x8, addend: 0x0, symName: __ZNKSt3__119ostreambuf_iteratorIcNS_11char_traitsIcEEE6failedB7v160006Ev, symObjAddr: 0xC3A4, symBinAddr: 0x10000F9E0, symSize: 0x24 }
  - { offsetInCU: 0x242DD, offset: 0x3EA99, size: 0x8, addend: 0x0, symName: __ZNSt3__19basic_iosIcNS_11char_traitsIcEEE8setstateB7v160006Ej, symObjAddr: 0xC3C8, symBinAddr: 0x10000FA04, symSize: 0x2C }
  - { offsetInCU: 0x24313, offset: 0x3EACF, size: 0x8, addend: 0x0, symName: __ZNKSt3__18ios_base5widthB7v160006Ev, symObjAddr: 0xC3F4, symBinAddr: 0x10000FA30, symSize: 0x18 }
  - { offsetInCU: 0x2433B, offset: 0x3EAF7, size: 0x8, addend: 0x0, symName: __ZNSt3__115basic_streambufIcNS_11char_traitsIcEEE5sputnB7v160006EPKcl, symObjAddr: 0xC40C, symBinAddr: 0x10000FA48, symSize: 0x3C }
  - { offsetInCU: 0x2437D, offset: 0x3EB39, size: 0x8, addend: 0x0, symName: __ZNSt3__112basic_stringIcNS_11char_traitsIcEENS_9allocatorIcEEEC1B7v160006Emc, symObjAddr: 0xC448, symBinAddr: 0x10000FA84, symSize: 0x3C }
  - { offsetInCU: 0x243C6, offset: 0x3EB82, size: 0x8, addend: 0x0, symName: __ZNSt3__112basic_stringIcNS_11char_traitsIcEENS_9allocatorIcEEE4dataB7v160006Ev, symObjAddr: 0xC484, symBinAddr: 0x10000FAC0, symSize: 0x28 }
  - { offsetInCU: 0x243EC, offset: 0x3EBA8, size: 0x8, addend: 0x0, symName: __ZNSt3__18ios_base5widthB7v160006El, symObjAddr: 0xC4AC, symBinAddr: 0x10000FAE8, symSize: 0x2C }
  - { offsetInCU: 0x24434, offset: 0x3EBF0, size: 0x8, addend: 0x0, symName: __ZNSt3__112basic_stringIcNS_11char_traitsIcEENS_9allocatorIcEEEC2B7v160006Emc, symObjAddr: 0xC4D8, symBinAddr: 0x10000FB14, symSize: 0x54 }
  - { offsetInCU: 0x2447D, offset: 0x3EC39, size: 0x8, addend: 0x0, symName: __ZNSt3__112basic_stringIcNS_11char_traitsIcEENS_9allocatorIcEEE13__get_pointerB7v160006Ev, symObjAddr: 0xC540, symBinAddr: 0x10000FB7C, symSize: 0x54 }
  - { offsetInCU: 0x244A3, offset: 0x3EC5F, size: 0x8, addend: 0x0, symName: __ZNKSt3__112basic_stringIcNS_11char_traitsIcEENS_9allocatorIcEEE9__is_longB7v160006Ev, symObjAddr: 0xC594, symBinAddr: 0x10000FBD0, symSize: 0x38 }
  - { offsetInCU: 0x244C9, offset: 0x3EC85, size: 0x8, addend: 0x0, symName: __ZNSt3__112basic_stringIcNS_11char_traitsIcEENS_9allocatorIcEEE18__get_long_pointerB7v160006Ev, symObjAddr: 0xC5CC, symBinAddr: 0x10000FC08, symSize: 0x28 }
  - { offsetInCU: 0x244EF, offset: 0x3ECAB, size: 0x8, addend: 0x0, symName: __ZNSt3__112basic_stringIcNS_11char_traitsIcEENS_9allocatorIcEEE19__get_short_pointerB7v160006Ev, symObjAddr: 0xC5F4, symBinAddr: 0x10000FC30, symSize: 0x28 }
  - { offsetInCU: 0x24515, offset: 0x3ECD1, size: 0x8, addend: 0x0, symName: __ZNKSt3__117__compressed_pairINS_12basic_stringIcNS_11char_traitsIcEENS_9allocatorIcEEE5__repES5_E5firstB7v160006Ev, symObjAddr: 0xC61C, symBinAddr: 0x10000FC58, symSize: 0x24 }
  - { offsetInCU: 0x2453B, offset: 0x3ECF7, size: 0x8, addend: 0x0, symName: __ZNKSt3__122__compressed_pair_elemINS_12basic_stringIcNS_11char_traitsIcEENS_9allocatorIcEEE5__repELi0ELb0EE5__getB7v160006Ev, symObjAddr: 0xC640, symBinAddr: 0x10000FC7C, symSize: 0x14 }
  - { offsetInCU: 0x24561, offset: 0x3ED1D, size: 0x8, addend: 0x0, symName: __ZNSt3__117__compressed_pairINS_12basic_stringIcNS_11char_traitsIcEENS_9allocatorIcEEE5__repES5_E5firstB7v160006Ev, symObjAddr: 0xC654, symBinAddr: 0x10000FC90, symSize: 0x24 }
  - { offsetInCU: 0x24587, offset: 0x3ED43, size: 0x8, addend: 0x0, symName: __ZNSt3__122__compressed_pair_elemINS_12basic_stringIcNS_11char_traitsIcEENS_9allocatorIcEEE5__repELi0ELb0EE5__getB7v160006Ev, symObjAddr: 0xC678, symBinAddr: 0x10000FCB4, symSize: 0x14 }
  - { offsetInCU: 0x245AD, offset: 0x3ED69, size: 0x8, addend: 0x0, symName: __ZNSt3__114pointer_traitsIPcE10pointer_toB7v160006ERc, symObjAddr: 0xC68C, symBinAddr: 0x10000FCC8, symSize: 0x14 }
  - { offsetInCU: 0x245D0, offset: 0x3ED8C, size: 0x8, addend: 0x0, symName: __ZNSt3__119ostreambuf_iteratorIcNS_11char_traitsIcEEEC2B7v160006ERNS_13basic_ostreamIcS2_EE, symObjAddr: 0xC6A0, symBinAddr: 0x10000FCDC, symSize: 0x54 }
  - { offsetInCU: 0x24607, offset: 0x3EDC3, size: 0x8, addend: 0x0, symName: __ZNKSt3__19basic_iosIcNS_11char_traitsIcEEE5rdbufB7v160006Ev, symObjAddr: 0xC6F4, symBinAddr: 0x10000FD30, symSize: 0x24 }
  - { offsetInCU: 0x2462F, offset: 0x3EDEB, size: 0x8, addend: 0x0, symName: __ZNKSt3__18ios_base5rdbufB7v160006Ev, symObjAddr: 0xC718, symBinAddr: 0x10000FD54, symSize: 0x18 }
  - { offsetInCU: 0x24655, offset: 0x3EE11, size: 0x8, addend: 0x0, symName: __ZNSt3__111char_traitsIcE11eq_int_typeEii, symObjAddr: 0xC730, symBinAddr: 0x10000FD6C, symSize: 0x28 }
  - { offsetInCU: 0x24686, offset: 0x3EE42, size: 0x8, addend: 0x0, symName: __ZNSt3__111char_traitsIcE3eofEv, symObjAddr: 0xC758, symBinAddr: 0x10000FD94, symSize: 0x8 }
  - { offsetInCU: 0x2469A, offset: 0x3EE56, size: 0x8, addend: 0x0, symName: __ZNKSt3__19basic_iosIcNS_11char_traitsIcEEE5widenB7v160006Ec, symObjAddr: 0xC760, symBinAddr: 0x10000FD9C, symSize: 0x84 }
  - { offsetInCU: 0x24704, offset: 0x3EEC0, size: 0x8, addend: 0x0, symName: __ZNKSt3__15ctypeIcE5widenB7v160006Ec, symObjAddr: 0xC810, symBinAddr: 0x10000FE4C, symSize: 0x38 }
  - { offsetInCU: 0x2473A, offset: 0x3EEF6, size: 0x8, addend: 0x0, symName: __ZNSt3__18ios_base8setstateB7v160006Ej, symObjAddr: 0xC848, symBinAddr: 0x10000FE84, symSize: 0x34 }
  - { offsetInCU: 0x24772, offset: 0x3EF2E, size: 0x8, addend: 0x0, symName: __ZNKSt3__112basic_stringIcNS_11char_traitsIcEENS_9allocatorIcEEE4dataB7v160006Ev, symObjAddr: 0xC87C, symBinAddr: 0x10000FEB8, symSize: 0x28 }
  - { offsetInCU: 0x24798, offset: 0x3EF54, size: 0x8, addend: 0x0, symName: __ZNKSt3__112basic_stringIcNS_11char_traitsIcEENS_9allocatorIcEEE4sizeB7v160006Ev, symObjAddr: 0xC8A4, symBinAddr: 0x10000FEE0, symSize: 0x54 }
  - { offsetInCU: 0x247BE, offset: 0x3EF7A, size: 0x8, addend: 0x0, symName: __ZNKSt3__112basic_stringIcNS_11char_traitsIcEENS_9allocatorIcEEE13__get_pointerB7v160006Ev, symObjAddr: 0xC90C, symBinAddr: 0x10000FF48, symSize: 0x54 }
  - { offsetInCU: 0x247E4, offset: 0x3EFA0, size: 0x8, addend: 0x0, symName: __ZNKSt3__112basic_stringIcNS_11char_traitsIcEENS_9allocatorIcEEE18__get_long_pointerB7v160006Ev, symObjAddr: 0xC960, symBinAddr: 0x10000FF9C, symSize: 0x28 }
  - { offsetInCU: 0x2480A, offset: 0x3EFC6, size: 0x8, addend: 0x0, symName: __ZNKSt3__112basic_stringIcNS_11char_traitsIcEENS_9allocatorIcEEE19__get_short_pointerB7v160006Ev, symObjAddr: 0xC988, symBinAddr: 0x10000FFC4, symSize: 0x28 }
  - { offsetInCU: 0x24830, offset: 0x3EFEC, size: 0x8, addend: 0x0, symName: __ZNSt3__114pointer_traitsIPKcE10pointer_toB7v160006ERS1_, symObjAddr: 0xC9B0, symBinAddr: 0x10000FFEC, symSize: 0x14 }
  - { offsetInCU: 0x24853, offset: 0x3F00F, size: 0x8, addend: 0x0, symName: __ZNKSt3__112basic_stringIcNS_11char_traitsIcEENS_9allocatorIcEEE15__get_long_sizeB7v160006Ev, symObjAddr: 0xC9C4, symBinAddr: 0x100010000, symSize: 0x28 }
  - { offsetInCU: 0x24879, offset: 0x3F035, size: 0x8, addend: 0x0, symName: __ZNKSt3__112basic_stringIcNS_11char_traitsIcEENS_9allocatorIcEEE16__get_short_sizeB7v160006Ev, symObjAddr: 0xC9EC, symBinAddr: 0x100010028, symSize: 0x34 }
  - { offsetInCU: 0x2489F, offset: 0x3F05B, size: 0x8, addend: 0x0, symName: __ZNSt3__16vectorIiNS_9allocatorIiEEEC2B7v160006Ev, symObjAddr: 0xCA20, symBinAddr: 0x10001005C, symSize: 0x58 }
  - { offsetInCU: 0x248C8, offset: 0x3F084, size: 0x8, addend: 0x0, symName: __ZNSt3__117__compressed_pairIPiNS_9allocatorIiEEEC1B7v160006IDnNS_18__default_init_tagEEEOT_OT0_, symObjAddr: 0xCA78, symBinAddr: 0x1000100B4, symSize: 0x3C }
  - { offsetInCU: 0x2491F, offset: 0x3F0DB, size: 0x8, addend: 0x0, symName: __ZNSt3__117__compressed_pairIPiNS_9allocatorIiEEEC2B7v160006IDnNS_18__default_init_tagEEEOT_OT0_, symObjAddr: 0xCAC4, symBinAddr: 0x100010100, symSize: 0x40 }
  - { offsetInCU: 0x24976, offset: 0x3F132, size: 0x8, addend: 0x0, symName: __ZNSt3__122__compressed_pair_elemIPiLi0ELb0EEC2B7v160006IDnvEEOT_, symObjAddr: 0xCB04, symBinAddr: 0x100010140, symSize: 0x1C }
  - { offsetInCU: 0x249B9, offset: 0x3F175, size: 0x8, addend: 0x0, symName: __ZNSt3__122__compressed_pair_elemINS_9allocatorIiEELi1ELb1EEC2B7v160006ENS_18__default_init_tagE, symObjAddr: 0xCB20, symBinAddr: 0x10001015C, symSize: 0x2C }
  - { offsetInCU: 0x249ED, offset: 0x3F1A9, size: 0x8, addend: 0x0, symName: __ZNSt3__19allocatorIiEC2B7v160006Ev, symObjAddr: 0xCB4C, symBinAddr: 0x100010188, symSize: 0x2C }
  - { offsetInCU: 0x24A16, offset: 0x3F1D2, size: 0x8, addend: 0x0, symName: __ZNSt3__116__non_trivial_ifILb1ENS_9allocatorIiEEEC2B7v160006Ev, symObjAddr: 0xCB78, symBinAddr: 0x1000101B4, symSize: 0x14 }
  - { offsetInCU: 0x24A40, offset: 0x3F1FC, size: 0x8, addend: 0x0, symName: __ZNSt3__16vectorIiNS_9allocatorIiEEED2B7v160006Ev, symObjAddr: 0xCB8C, symBinAddr: 0x1000101C8, symSize: 0x44 }
  - { offsetInCU: 0x24A69, offset: 0x3F225, size: 0x8, addend: 0x0, symName: __ZNSt3__16vectorIiNS_9allocatorIiEEE16__destroy_vectorC1ERS3_, symObjAddr: 0xCBD0, symBinAddr: 0x10001020C, symSize: 0x34 }
  - { offsetInCU: 0x24AA2, offset: 0x3F25E, size: 0x8, addend: 0x0, symName: __ZNSt3__16vectorIiNS_9allocatorIiEEE16__destroy_vectorclB7v160006Ev, symObjAddr: 0xCC04, symBinAddr: 0x100010240, symSize: 0x9C }
  - { offsetInCU: 0x24AC8, offset: 0x3F284, size: 0x8, addend: 0x0, symName: __ZNSt3__16vectorIiNS_9allocatorIiEEE16__destroy_vectorC2ERS3_, symObjAddr: 0xCCA0, symBinAddr: 0x1000102DC, symSize: 0x20 }
  - { offsetInCU: 0x24B02, offset: 0x3F2BE, size: 0x8, addend: 0x0, symName: __ZNKSt3__16vectorIiNS_9allocatorIiEEE17__annotate_deleteB7v160006Ev, symObjAddr: 0xCCC0, symBinAddr: 0x1000102FC, symSize: 0xB8 }
  - { offsetInCU: 0x24B28, offset: 0x3F2E4, size: 0x8, addend: 0x0, symName: __ZNSt3__16vectorIiNS_9allocatorIiEEE7__clearB7v160006Ev, symObjAddr: 0xCD88, symBinAddr: 0x1000103C4, symSize: 0x28 }
  - { offsetInCU: 0x24B4D, offset: 0x3F309, size: 0x8, addend: 0x0, symName: __ZNSt3__116allocator_traitsINS_9allocatorIiEEE10deallocateB7v160006ERS2_Pim, symObjAddr: 0xCDB0, symBinAddr: 0x1000103EC, symSize: 0x34 }
  - { offsetInCU: 0x24B93, offset: 0x3F34F, size: 0x8, addend: 0x0, symName: __ZNSt3__16vectorIiNS_9allocatorIiEEE7__allocB7v160006Ev, symObjAddr: 0xCDE4, symBinAddr: 0x100010420, symSize: 0x28 }
  - { offsetInCU: 0x24BB9, offset: 0x3F375, size: 0x8, addend: 0x0, symName: __ZNKSt3__16vectorIiNS_9allocatorIiEEE8capacityB7v160006Ev, symObjAddr: 0xCE0C, symBinAddr: 0x100010448, symSize: 0x40 }
  - { offsetInCU: 0x24BDF, offset: 0x3F39B, size: 0x8, addend: 0x0, symName: __ZNKSt3__16vectorIiNS_9allocatorIiEEE31__annotate_contiguous_containerB7v160006EPKvS5_S5_S5_, symObjAddr: 0xCE4C, symBinAddr: 0x100010488, symSize: 0x20 }
  - { offsetInCU: 0x24C35, offset: 0x3F3F1, size: 0x8, addend: 0x0, symName: __ZNKSt3__16vectorIiNS_9allocatorIiEEE4dataB7v160006Ev, symObjAddr: 0xCE6C, symBinAddr: 0x1000104A8, symSize: 0x28 }
  - { offsetInCU: 0x24C5B, offset: 0x3F417, size: 0x8, addend: 0x0, symName: __ZNSt3__16vectorIiNS_9allocatorIiEEE22__base_destruct_at_endB7v160006EPi, symObjAddr: 0xCEA8, symBinAddr: 0x1000104E4, symSize: 0x8C }
  - { offsetInCU: 0x24CA0, offset: 0x3F45C, size: 0x8, addend: 0x0, symName: __ZNSt3__116allocator_traitsINS_9allocatorIiEEE7destroyB7v160006IivEEvRS2_PT_, symObjAddr: 0xCF34, symBinAddr: 0x100010570, symSize: 0x2C }
  - { offsetInCU: 0x24CE1, offset: 0x3F49D, size: 0x8, addend: 0x0, symName: __ZNSt3__19allocatorIiE7destroyB7v160006EPi, symObjAddr: 0xCF60, symBinAddr: 0x10001059C, symSize: 0x14 }
  - { offsetInCU: 0x24D15, offset: 0x3F4D1, size: 0x8, addend: 0x0, symName: __ZNSt3__19allocatorIiE10deallocateB7v160006EPim, symObjAddr: 0xCF74, symBinAddr: 0x1000105B0, symSize: 0x40 }
  - { offsetInCU: 0x24D57, offset: 0x3F513, size: 0x8, addend: 0x0, symName: __ZNSt3__117__compressed_pairIPiNS_9allocatorIiEEE6secondB7v160006Ev, symObjAddr: 0xCFB4, symBinAddr: 0x1000105F0, symSize: 0x24 }
  - { offsetInCU: 0x24D7D, offset: 0x3F539, size: 0x8, addend: 0x0, symName: __ZNSt3__122__compressed_pair_elemINS_9allocatorIiEELi1ELb1EE5__getB7v160006Ev, symObjAddr: 0xCFD8, symBinAddr: 0x100010614, symSize: 0x14 }
  - { offsetInCU: 0x24DA3, offset: 0x3F55F, size: 0x8, addend: 0x0, symName: __ZNKSt3__16vectorIiNS_9allocatorIiEEE9__end_capB7v160006Ev, symObjAddr: 0xCFEC, symBinAddr: 0x100010628, symSize: 0x28 }
  - { offsetInCU: 0x24DC9, offset: 0x3F585, size: 0x8, addend: 0x0, symName: __ZNKSt3__117__compressed_pairIPiNS_9allocatorIiEEE5firstB7v160006Ev, symObjAddr: 0xD014, symBinAddr: 0x100010650, symSize: 0x24 }
  - { offsetInCU: 0x24DEF, offset: 0x3F5AB, size: 0x8, addend: 0x0, symName: __ZNKSt3__122__compressed_pair_elemIPiLi0ELb0EE5__getB7v160006Ev, symObjAddr: 0xD038, symBinAddr: 0x100010674, symSize: 0x14 }
  - { offsetInCU: 0x24E15, offset: 0x3F5D1, size: 0x8, addend: 0x0, symName: __ZN2cv5Rect_IiEC2Eiiii, symObjAddr: 0xD0F4, symBinAddr: 0x100010688, symSize: 0x44 }
  - { offsetInCU: 0x24E81, offset: 0x3F63D, size: 0x8, addend: 0x0, symName: __ZNSt3__16vectorIdNS_9allocatorIdEEE11__make_iterB7v160006EPd, symObjAddr: 0xD138, symBinAddr: 0x1000106CC, symSize: 0x34 }
  - { offsetInCU: 0x24EB7, offset: 0x3F673, size: 0x8, addend: 0x0, symName: __ZNSt3__111__wrap_iterIPdEC1B7v160006EPKvS1_, symObjAddr: 0xD16C, symBinAddr: 0x100010700, symSize: 0x3C }
  - { offsetInCU: 0x24EFC, offset: 0x3F6B8, size: 0x8, addend: 0x0, symName: __ZNSt3__111__wrap_iterIPdEC2B7v160006EPKvS1_, symObjAddr: 0xD1A8, symBinAddr: 0x10001073C, symSize: 0x24 }
  - { offsetInCU: 0x24F42, offset: 0x3F6FE, size: 0x8, addend: 0x0, symName: __ZNSt3__16vectorIN2cv3MatENS_9allocatorIS2_EEEC2B7v160006ESt16initializer_listIS2_E, symObjAddr: 0xD1CC, symBinAddr: 0x100010760, symSize: 0x124 }
  - { offsetInCU: 0x24F96, offset: 0x3F752, size: 0x8, addend: 0x0, symName: __ZNSt3__117__compressed_pairIPN2cv3MatENS_9allocatorIS2_EEEC1B7v160006IDnNS_18__default_init_tagEEEOT_OT0_, symObjAddr: 0xD2F0, symBinAddr: 0x100010884, symSize: 0x3C }
  - { offsetInCU: 0x24FED, offset: 0x3F7A9, size: 0x8, addend: 0x0, symName: __ZNSt3__16vectorIN2cv3MatENS_9allocatorIS2_EEE16__destroy_vectorC1ERS5_, symObjAddr: 0xD36C, symBinAddr: 0x100010900, symSize: 0x34 }
  - { offsetInCU: 0x25026, offset: 0x3F7E2, size: 0x8, addend: 0x0, symName: __ZNKSt16initializer_listIN2cv3MatEE4sizeB7v160006Ev, symObjAddr: 0xD3B0, symBinAddr: 0x100010944, symSize: 0x18 }
  - { offsetInCU: 0x2504C, offset: 0x3F808, size: 0x8, addend: 0x0, symName: __ZNSt3__16vectorIN2cv3MatENS_9allocatorIS2_EEE11__vallocateB7v160006Em, symObjAddr: 0xD3C8, symBinAddr: 0x10001095C, symSize: 0xB4 }
  - { offsetInCU: 0x25092, offset: 0x3F84E, size: 0x8, addend: 0x0, symName: __ZNSt3__16vectorIN2cv3MatENS_9allocatorIS2_EEE18__construct_at_endIPKS2_Li0EEEvT_S9_m, symObjAddr: 0xD47C, symBinAddr: 0x100010A10, symSize: 0x8C }
  - { offsetInCU: 0x2510A, offset: 0x3F8C6, size: 0x8, addend: 0x0, symName: __ZNKSt16initializer_listIN2cv3MatEE5beginB7v160006Ev, symObjAddr: 0xD508, symBinAddr: 0x100010A9C, symSize: 0x18 }
  - { offsetInCU: 0x25130, offset: 0x3F8EC, size: 0x8, addend: 0x0, symName: __ZNKSt16initializer_listIN2cv3MatEE3endB7v160006Ev, symObjAddr: 0xD520, symBinAddr: 0x100010AB4, symSize: 0x28 }
  - { offsetInCU: 0x25156, offset: 0x3F912, size: 0x8, addend: 0x0, symName: __ZNSt3__128__exception_guard_exceptionsINS_6vectorIN2cv3MatENS_9allocatorIS3_EEE16__destroy_vectorEE10__completeB7v160006Ev, symObjAddr: 0xD548, symBinAddr: 0x100010ADC, symSize: 0x1C }
  - { offsetInCU: 0x2517C, offset: 0x3F938, size: 0x8, addend: 0x0, symName: __ZNSt3__128__exception_guard_exceptionsINS_6vectorIN2cv3MatENS_9allocatorIS3_EEE16__destroy_vectorEED1B7v160006Ev, symObjAddr: 0xD564, symBinAddr: 0x100010AF8, symSize: 0x2C }
  - { offsetInCU: 0x251A5, offset: 0x3F961, size: 0x8, addend: 0x0, symName: __ZNSt3__117__compressed_pairIPN2cv3MatENS_9allocatorIS2_EEEC2B7v160006IDnNS_18__default_init_tagEEEOT_OT0_, symObjAddr: 0xD590, symBinAddr: 0x100010B24, symSize: 0x40 }
  - { offsetInCU: 0x251FC, offset: 0x3F9B8, size: 0x8, addend: 0x0, symName: __ZNSt3__122__compressed_pair_elemIPN2cv3MatELi0ELb0EEC2B7v160006IDnvEEOT_, symObjAddr: 0xD5D0, symBinAddr: 0x100010B64, symSize: 0x1C }
  - { offsetInCU: 0x2523F, offset: 0x3F9FB, size: 0x8, addend: 0x0, symName: __ZNSt3__122__compressed_pair_elemINS_9allocatorIN2cv3MatEEELi1ELb1EEC2B7v160006ENS_18__default_init_tagE, symObjAddr: 0xD5EC, symBinAddr: 0x100010B80, symSize: 0x2C }
  - { offsetInCU: 0x25273, offset: 0x3FA2F, size: 0x8, addend: 0x0, symName: __ZNSt3__19allocatorIN2cv3MatEEC2B7v160006Ev, symObjAddr: 0xD618, symBinAddr: 0x100010BAC, symSize: 0x2C }
  - { offsetInCU: 0x2529C, offset: 0x3FA58, size: 0x8, addend: 0x0, symName: __ZNSt3__116__non_trivial_ifILb1ENS_9allocatorIN2cv3MatEEEEC2B7v160006Ev, symObjAddr: 0xD644, symBinAddr: 0x100010BD8, symSize: 0x14 }
  - { offsetInCU: 0x252C6, offset: 0x3FA82, size: 0x8, addend: 0x0, symName: __ZNSt3__128__exception_guard_exceptionsINS_6vectorIN2cv3MatENS_9allocatorIS3_EEE16__destroy_vectorEEC1B7v160006ES7_, symObjAddr: 0xD658, symBinAddr: 0x100010BEC, symSize: 0x34 }
  - { offsetInCU: 0x252FD, offset: 0x3FAB9, size: 0x8, addend: 0x0, symName: __ZNSt3__128__exception_guard_exceptionsINS_6vectorIN2cv3MatENS_9allocatorIS3_EEE16__destroy_vectorEEC2B7v160006ES7_, symObjAddr: 0xD68C, symBinAddr: 0x100010C20, symSize: 0x24 }
  - { offsetInCU: 0x25335, offset: 0x3FAF1, size: 0x8, addend: 0x0, symName: __ZNSt3__16vectorIN2cv3MatENS_9allocatorIS2_EEE16__destroy_vectorC2ERS5_, symObjAddr: 0xD6B0, symBinAddr: 0x100010C44, symSize: 0x20 }
  - { offsetInCU: 0x2536F, offset: 0x3FB2B, size: 0x8, addend: 0x0, symName: __ZNKSt3__16vectorIN2cv3MatENS_9allocatorIS2_EEE8max_sizeEv, symObjAddr: 0xD6D0, symBinAddr: 0x100010C64, symSize: 0x60 }
  - { offsetInCU: 0x25397, offset: 0x3FB53, size: 0x8, addend: 0x0, symName: __ZNKSt3__16vectorIN2cv3MatENS_9allocatorIS2_EEE20__throw_length_errorB7v160006Ev, symObjAddr: 0xD730, symBinAddr: 0x100010CC4, symSize: 0x1C }
  - { offsetInCU: 0x253BD, offset: 0x3FB79, size: 0x8, addend: 0x0, symName: __ZNSt3__16vectorIN2cv3MatENS_9allocatorIS2_EEE7__allocB7v160006Ev, symObjAddr: 0xD78C, symBinAddr: 0x100010D20, symSize: 0x28 }
  - { offsetInCU: 0x253E3, offset: 0x3FB9F, size: 0x8, addend: 0x0, symName: __ZNSt3__16vectorIN2cv3MatENS_9allocatorIS2_EEE9__end_capB7v160006Ev, symObjAddr: 0xD7B4, symBinAddr: 0x100010D48, symSize: 0x28 }
  - { offsetInCU: 0x25409, offset: 0x3FBC5, size: 0x8, addend: 0x0, symName: __ZNKSt3__16vectorIN2cv3MatENS_9allocatorIS2_EEE14__annotate_newB7v160006Em, symObjAddr: 0xD7DC, symBinAddr: 0x100010D70, symSize: 0xC8 }
  - { offsetInCU: 0x25448, offset: 0x3FC04, size: 0x8, addend: 0x0, symName: __ZNSt3__116allocator_traitsINS_9allocatorIN2cv3MatEEEE8max_sizeB7v160006IS4_vEEmRKS4_, symObjAddr: 0xD8D0, symBinAddr: 0x100010E64, symSize: 0x24 }
  - { offsetInCU: 0x25479, offset: 0x3FC35, size: 0x8, addend: 0x0, symName: __ZNKSt3__16vectorIN2cv3MatENS_9allocatorIS2_EEE7__allocB7v160006Ev, symObjAddr: 0xD8F4, symBinAddr: 0x100010E88, symSize: 0x28 }
  - { offsetInCU: 0x2549F, offset: 0x3FC5B, size: 0x8, addend: 0x0, symName: __ZNSt3__114numeric_limitsIlE3maxB7v160006Ev, symObjAddr: 0xD91C, symBinAddr: 0x100010EB0, symSize: 0x14 }
  - { offsetInCU: 0x254B3, offset: 0x3FC6F, size: 0x8, addend: 0x0, symName: __ZNKSt3__19allocatorIN2cv3MatEE8max_sizeB7v160006Ev, symObjAddr: 0xD984, symBinAddr: 0x100010F18, symSize: 0x18 }
  - { offsetInCU: 0x254D9, offset: 0x3FC95, size: 0x8, addend: 0x0, symName: __ZNKSt3__117__compressed_pairIPN2cv3MatENS_9allocatorIS2_EEE6secondB7v160006Ev, symObjAddr: 0xD99C, symBinAddr: 0x100010F30, symSize: 0x24 }
  - { offsetInCU: 0x254FF, offset: 0x3FCBB, size: 0x8, addend: 0x0, symName: __ZNKSt3__122__compressed_pair_elemINS_9allocatorIN2cv3MatEEELi1ELb1EE5__getB7v160006Ev, symObjAddr: 0xD9C0, symBinAddr: 0x100010F54, symSize: 0x14 }
  - { offsetInCU: 0x25525, offset: 0x3FCE1, size: 0x8, addend: 0x0, symName: __ZNSt3__123__libcpp_numeric_limitsIlLb1EE3maxB7v160006Ev, symObjAddr: 0xD9D4, symBinAddr: 0x100010F68, symSize: 0x8 }
  - { offsetInCU: 0x25539, offset: 0x3FCF5, size: 0x8, addend: 0x0, symName: __ZNSt12length_errorC1B7v160006EPKc, symObjAddr: 0xDA40, symBinAddr: 0x100010FD4, symSize: 0x34 }
  - { offsetInCU: 0x25570, offset: 0x3FD2C, size: 0x8, addend: 0x0, symName: __ZNSt12length_errorC2B7v160006EPKc, symObjAddr: 0xDA74, symBinAddr: 0x100011008, symSize: 0x4C }
  - { offsetInCU: 0x255A7, offset: 0x3FD63, size: 0x8, addend: 0x0, symName: __ZNSt3__19allocatorIN2cv3MatEE8allocateB7v160006Em, symObjAddr: 0xDAC0, symBinAddr: 0x100011054, symSize: 0x5C }
  - { offsetInCU: 0x255DB, offset: 0x3FD97, size: 0x8, addend: 0x0, symName: __ZNSt3__117__compressed_pairIPN2cv3MatENS_9allocatorIS2_EEE6secondB7v160006Ev, symObjAddr: 0xDC00, symBinAddr: 0x100011194, symSize: 0x24 }
  - { offsetInCU: 0x25601, offset: 0x3FDBD, size: 0x8, addend: 0x0, symName: __ZNSt3__122__compressed_pair_elemINS_9allocatorIN2cv3MatEEELi1ELb1EE5__getB7v160006Ev, symObjAddr: 0xDC24, symBinAddr: 0x1000111B8, symSize: 0x14 }
  - { offsetInCU: 0x25627, offset: 0x3FDE3, size: 0x8, addend: 0x0, symName: __ZNSt3__117__compressed_pairIPN2cv3MatENS_9allocatorIS2_EEE5firstB7v160006Ev, symObjAddr: 0xDC38, symBinAddr: 0x1000111CC, symSize: 0x24 }
  - { offsetInCU: 0x2564D, offset: 0x3FE09, size: 0x8, addend: 0x0, symName: __ZNSt3__122__compressed_pair_elemIPN2cv3MatELi0ELb0EE5__getB7v160006Ev, symObjAddr: 0xDC5C, symBinAddr: 0x1000111F0, symSize: 0x14 }
  - { offsetInCU: 0x25673, offset: 0x3FE2F, size: 0x8, addend: 0x0, symName: __ZNKSt3__16vectorIN2cv3MatENS_9allocatorIS2_EEE31__annotate_contiguous_containerB7v160006EPKvS7_S7_S7_, symObjAddr: 0xDC70, symBinAddr: 0x100011204, symSize: 0x20 }
  - { offsetInCU: 0x256C9, offset: 0x3FE85, size: 0x8, addend: 0x0, symName: __ZNKSt3__16vectorIN2cv3MatENS_9allocatorIS2_EEE4dataB7v160006Ev, symObjAddr: 0xDC90, symBinAddr: 0x100011224, symSize: 0x28 }
  - { offsetInCU: 0x256EF, offset: 0x3FEAB, size: 0x8, addend: 0x0, symName: __ZNKSt3__16vectorIN2cv3MatENS_9allocatorIS2_EEE8capacityB7v160006Ev, symObjAddr: 0xDCB8, symBinAddr: 0x10001124C, symSize: 0x40 }
  - { offsetInCU: 0x25715, offset: 0x3FED1, size: 0x8, addend: 0x0, symName: __ZNKSt3__16vectorIN2cv3MatENS_9allocatorIS2_EEE9__end_capB7v160006Ev, symObjAddr: 0xDD0C, symBinAddr: 0x1000112A0, symSize: 0x28 }
  - { offsetInCU: 0x2573B, offset: 0x3FEF7, size: 0x8, addend: 0x0, symName: __ZNKSt3__117__compressed_pairIPN2cv3MatENS_9allocatorIS2_EEE5firstB7v160006Ev, symObjAddr: 0xDD34, symBinAddr: 0x1000112C8, symSize: 0x24 }
  - { offsetInCU: 0x25761, offset: 0x3FF1D, size: 0x8, addend: 0x0, symName: __ZNKSt3__122__compressed_pair_elemIPN2cv3MatELi0ELb0EE5__getB7v160006Ev, symObjAddr: 0xDD58, symBinAddr: 0x1000112EC, symSize: 0x14 }
  - { offsetInCU: 0x257A0, offset: 0x3FF5C, size: 0x8, addend: 0x0, symName: __ZNSt3__16vectorIN2cv3MatENS_9allocatorIS2_EEE21_ConstructTransactionC1B7v160006ERS5_m, symObjAddr: 0xDD6C, symBinAddr: 0x100011300, symSize: 0x3C }
  - { offsetInCU: 0x257E9, offset: 0x3FFA5, size: 0x8, addend: 0x0, symName: __ZNSt3__16vectorIN2cv3MatENS_9allocatorIS2_EEE21_ConstructTransactionD1B7v160006Ev, symObjAddr: 0xDE9C, symBinAddr: 0x100011430, symSize: 0x2C }
  - { offsetInCU: 0x25812, offset: 0x3FFCE, size: 0x8, addend: 0x0, symName: __ZNSt3__16vectorIN2cv3MatENS_9allocatorIS2_EEE21_ConstructTransactionC2B7v160006ERS5_m, symObjAddr: 0xDEC8, symBinAddr: 0x10001145C, symSize: 0x4C }
  - { offsetInCU: 0x2585C, offset: 0x40018, size: 0x8, addend: 0x0, symName: __ZNSt3__129_AllocatorDestroyRangeReverseINS_9allocatorIN2cv3MatEEEPS3_EC1B7v160006ERS4_RS5_S8_, symObjAddr: 0xDF60, symBinAddr: 0x1000114F4, symSize: 0x44 }
  - { offsetInCU: 0x258B4, offset: 0x40070, size: 0x8, addend: 0x0, symName: __ZNSt3__116allocator_traitsINS_9allocatorIN2cv3MatEEEE9constructB7v160006IS3_JRKS3_EvEEvRS4_PT_DpOT0_, symObjAddr: 0xDFA4, symBinAddr: 0x100011538, symSize: 0x34 }
  - { offsetInCU: 0x25911, offset: 0x400CD, size: 0x8, addend: 0x0, symName: __ZNSt3__128__exception_guard_exceptionsINS_29_AllocatorDestroyRangeReverseINS_9allocatorIN2cv3MatEEEPS4_EEE10__completeB7v160006Ev, symObjAddr: 0xDFD8, symBinAddr: 0x10001156C, symSize: 0x1C }
  - { offsetInCU: 0x25937, offset: 0x400F3, size: 0x8, addend: 0x0, symName: __ZNSt3__128__exception_guard_exceptionsINS_29_AllocatorDestroyRangeReverseINS_9allocatorIN2cv3MatEEEPS4_EEED1B7v160006Ev, symObjAddr: 0xDFF4, symBinAddr: 0x100011588, symSize: 0x2C }
  - { offsetInCU: 0x25960, offset: 0x4011C, size: 0x8, addend: 0x0, symName: __ZNSt3__128__exception_guard_exceptionsINS_29_AllocatorDestroyRangeReverseINS_9allocatorIN2cv3MatEEEPS4_EEEC1B7v160006ES7_, symObjAddr: 0xE020, symBinAddr: 0x1000115B4, symSize: 0x34 }
  - { offsetInCU: 0x25998, offset: 0x40154, size: 0x8, addend: 0x0, symName: __ZNSt3__128__exception_guard_exceptionsINS_29_AllocatorDestroyRangeReverseINS_9allocatorIN2cv3MatEEEPS4_EEEC2B7v160006ES7_, symObjAddr: 0xE054, symBinAddr: 0x1000115E8, symSize: 0x30 }
  - { offsetInCU: 0x259D1, offset: 0x4018D, size: 0x8, addend: 0x0, symName: __ZNSt3__129_AllocatorDestroyRangeReverseINS_9allocatorIN2cv3MatEEEPS3_EC2B7v160006ERS4_RS5_S8_, symObjAddr: 0xE084, symBinAddr: 0x100011618, symSize: 0x38 }
  - { offsetInCU: 0x25A2B, offset: 0x401E7, size: 0x8, addend: 0x0, symName: __ZNSt3__19allocatorIN2cv3MatEE9constructB7v160006IS2_JRKS2_EEEvPT_DpOT0_, symObjAddr: 0xE0BC, symBinAddr: 0x100011650, symSize: 0x30 }
  - { offsetInCU: 0x25A82, offset: 0x4023E, size: 0x8, addend: 0x0, symName: __ZNSt3__128__exception_guard_exceptionsINS_29_AllocatorDestroyRangeReverseINS_9allocatorIN2cv3MatEEEPS4_EEED2B7v160006Ev, symObjAddr: 0xE0EC, symBinAddr: 0x100011680, symSize: 0x50 }
  - { offsetInCU: 0x25AAB, offset: 0x40267, size: 0x8, addend: 0x0, symName: __ZNKSt3__129_AllocatorDestroyRangeReverseINS_9allocatorIN2cv3MatEEEPS3_EclB7v160006Ev, symObjAddr: 0xE13C, symBinAddr: 0x1000116D0, symSize: 0x68 }
  - { offsetInCU: 0x25AD1, offset: 0x4028D, size: 0x8, addend: 0x0, symName: __ZNSt3__116reverse_iteratorIPN2cv3MatEEC1B7v160006ES3_, symObjAddr: 0xE214, symBinAddr: 0x1000117A8, symSize: 0x34 }
  - { offsetInCU: 0x25B07, offset: 0x402C3, size: 0x8, addend: 0x0, symName: __ZNSt3__116allocator_traitsINS_9allocatorIN2cv3MatEEEE7destroyB7v160006IS3_vEEvRS4_PT_, symObjAddr: 0xE290, symBinAddr: 0x100011824, symSize: 0x2C }
  - { offsetInCU: 0x25B48, offset: 0x40304, size: 0x8, addend: 0x0, symName: __ZNSt3__116reverse_iteratorIPN2cv3MatEEppB7v160006Ev, symObjAddr: 0xE2E0, symBinAddr: 0x100011874, symSize: 0x20 }
  - { offsetInCU: 0x25B6E, offset: 0x4032A, size: 0x8, addend: 0x0, symName: __ZNKSt3__116reverse_iteratorIPN2cv3MatEE4baseB7v160006Ev, symObjAddr: 0xE300, symBinAddr: 0x100011894, symSize: 0x18 }
  - { offsetInCU: 0x25B94, offset: 0x40350, size: 0x8, addend: 0x0, symName: __ZNSt3__19allocatorIN2cv3MatEE7destroyB7v160006EPS2_, symObjAddr: 0xE318, symBinAddr: 0x1000118AC, symSize: 0x28 }
  - { offsetInCU: 0x25BCC, offset: 0x40388, size: 0x8, addend: 0x0, symName: __ZNSt3__119__to_address_helperINS_16reverse_iteratorIPN2cv3MatEEEvE6__callB7v160006ERKS5_, symObjAddr: 0xE340, symBinAddr: 0x1000118D4, symSize: 0x38 }
  - { offsetInCU: 0x25BF0, offset: 0x403AC, size: 0x8, addend: 0x0, symName: __ZNKSt3__116reverse_iteratorIPN2cv3MatEEptB7v160006Ev, symObjAddr: 0xE378, symBinAddr: 0x10001190C, symSize: 0x24 }
  - { offsetInCU: 0x25C16, offset: 0x403D2, size: 0x8, addend: 0x0, symName: __ZNKSt3__116reverse_iteratorIPN2cv3MatEEdeB7v160006Ev, symObjAddr: 0xE39C, symBinAddr: 0x100011930, symSize: 0x28 }
  - { offsetInCU: 0x25C4B, offset: 0x40407, size: 0x8, addend: 0x0, symName: __ZNSt3__116reverse_iteratorIPN2cv3MatEEC2B7v160006ES3_, symObjAddr: 0xE3C4, symBinAddr: 0x100011958, symSize: 0x28 }
  - { offsetInCU: 0x25C83, offset: 0x4043F, size: 0x8, addend: 0x0, symName: __ZNSt3__16vectorIN2cv3MatENS_9allocatorIS2_EEE21_ConstructTransactionD2B7v160006Ev, symObjAddr: 0xE3EC, symBinAddr: 0x100011980, symSize: 0x20 }
  - { offsetInCU: 0x25CAD, offset: 0x40469, size: 0x8, addend: 0x0, symName: __ZNSt3__128__exception_guard_exceptionsINS_6vectorIN2cv3MatENS_9allocatorIS3_EEE16__destroy_vectorEED2B7v160006Ev, symObjAddr: 0xE40C, symBinAddr: 0x1000119A0, symSize: 0x50 }
  - { offsetInCU: 0x25CD6, offset: 0x40492, size: 0x8, addend: 0x0, symName: __ZNSt3__16vectorIN2cv3MatENS_9allocatorIS2_EEE16__destroy_vectorclB7v160006Ev, symObjAddr: 0xE45C, symBinAddr: 0x1000119F0, symSize: 0x9C }
  - { offsetInCU: 0x25CFC, offset: 0x404B8, size: 0x8, addend: 0x0, symName: __ZNKSt3__16vectorIN2cv3MatENS_9allocatorIS2_EEE17__annotate_deleteB7v160006Ev, symObjAddr: 0xE4F8, symBinAddr: 0x100011A8C, symSize: 0xD4 }
  - { offsetInCU: 0x25D22, offset: 0x404DE, size: 0x8, addend: 0x0, symName: __ZNSt3__16vectorIN2cv3MatENS_9allocatorIS2_EEE7__clearB7v160006Ev, symObjAddr: 0xE5DC, symBinAddr: 0x100011B70, symSize: 0x28 }
  - { offsetInCU: 0x25D47, offset: 0x40503, size: 0x8, addend: 0x0, symName: __ZNSt3__116allocator_traitsINS_9allocatorIN2cv3MatEEEE10deallocateB7v160006ERS4_PS3_m, symObjAddr: 0xE604, symBinAddr: 0x100011B98, symSize: 0x34 }
  - { offsetInCU: 0x25D8D, offset: 0x40549, size: 0x8, addend: 0x0, symName: __ZNKSt3__16vectorIN2cv3MatENS_9allocatorIS2_EEE4sizeB7v160006Ev, symObjAddr: 0xE638, symBinAddr: 0x100011BCC, symSize: 0x28 }
  - { offsetInCU: 0x25DB3, offset: 0x4056F, size: 0x8, addend: 0x0, symName: __ZNSt3__16vectorIN2cv3MatENS_9allocatorIS2_EEE22__base_destruct_at_endB7v160006EPS2_, symObjAddr: 0xE660, symBinAddr: 0x100011BF4, symSize: 0x8C }
  - { offsetInCU: 0x25DF9, offset: 0x405B5, size: 0x8, addend: 0x0, symName: __ZNSt3__19allocatorIN2cv3MatEE10deallocateB7v160006EPS2_m, symObjAddr: 0xE6EC, symBinAddr: 0x100011C80, symSize: 0x44 }
  - { offsetInCU: 0x25E3B, offset: 0x405F7, size: 0x8, addend: 0x0, symName: __ZNSt3__16vectorIN2cv3MatENS_9allocatorIS2_EEED2B7v160006Ev, symObjAddr: 0xE730, symBinAddr: 0x100011CC4, symSize: 0x44 }
  - { offsetInCU: 0x25E64, offset: 0x40620, size: 0x8, addend: 0x0, symName: __ZNSt3__16vectorIN2cv3MatENS_9allocatorIS2_EEEC2B7v160006Ev, symObjAddr: 0xE774, symBinAddr: 0x100011D08, symSize: 0x54 }
  - { offsetInCU: 0x25E8D, offset: 0x40649, size: 0x8, addend: 0x0, symName: __ZNSt3__112basic_stringIcNS_11char_traitsIcEENS_9allocatorIcEEEC1B7v160006EOS5_, symObjAddr: 0xE7C8, symBinAddr: 0x100011D5C, symSize: 0x34 }
  - { offsetInCU: 0x25EC6, offset: 0x40682, size: 0x8, addend: 0x0, symName: __ZNSt3__112basic_stringIcNS_11char_traitsIcEENS_9allocatorIcEEEC2B7v160006EOS5_, symObjAddr: 0xE7FC, symBinAddr: 0x100011D90, symSize: 0x84 }
  - { offsetInCU: 0x25EFF, offset: 0x406BB, size: 0x8, addend: 0x0, symName: __ZNSt3__112basic_stringIcNS_11char_traitsIcEENS_9allocatorIcEEE14__default_initB7v160006Ev, symObjAddr: 0xE880, symBinAddr: 0x100011E14, symSize: 0x40 }
  - { offsetInCU: 0x25F25, offset: 0x406E1, size: 0x8, addend: 0x0, symName: __ZN2cv7Scalar_IdEC2Ed, symObjAddr: 0xE8D4, symBinAddr: 0x100011E68, symSize: 0x48 }
  - { offsetInCU: 0x25F61, offset: 0x4071D, size: 0x8, addend: 0x0, symName: __ZN2cv3VecIiLi2EEC2Eii, symObjAddr: 0xE91C, symBinAddr: 0x100011EB0, symSize: 0x3C }
  - { offsetInCU: 0x25FAD, offset: 0x40769, size: 0x8, addend: 0x0, symName: __ZN2cv4MatxIiLi2ELi1EEC2Eii, symObjAddr: 0xE958, symBinAddr: 0x100011EEC, symSize: 0x80 }
  - { offsetInCU: 0x26014, offset: 0x407D0, size: 0x8, addend: 0x0, symName: __ZN2cv3VecIiLi2EEC2ERKS1_, symObjAddr: 0xE9D8, symBinAddr: 0x100011F6C, symSize: 0x34 }
  - { offsetInCU: 0x26050, offset: 0x4080C, size: 0x8, addend: 0x0, symName: __ZN2cv4MatxIiLi2ELi1EEC2EPKi, symObjAddr: 0xEA0C, symBinAddr: 0x100011FA0, symSize: 0x6C }
  - { offsetInCU: 0x260A9, offset: 0x40865, size: 0x8, addend: 0x0, symName: __ZN2cv10Matx_SubOpC1Ev, symObjAddr: 0xEA78, symBinAddr: 0x10001200C, symSize: 0x2C }
  - { offsetInCU: 0x260D2, offset: 0x4088E, size: 0x8, addend: 0x0, symName: __ZN2cv3VecIiLi2EEC1ERKNS_4MatxIiLi2ELi1EEES5_NS_10Matx_SubOpE, symObjAddr: 0xEAA4, symBinAddr: 0x100012038, symSize: 0x44 }
  - { offsetInCU: 0x2612F, offset: 0x408EB, size: 0x8, addend: 0x0, symName: __ZN2cv10Matx_SubOpC2Ev, symObjAddr: 0xEAE8, symBinAddr: 0x10001207C, symSize: 0x14 }
  - { offsetInCU: 0x26159, offset: 0x40915, size: 0x8, addend: 0x0, symName: __ZN2cv3VecIiLi2EEC2ERKNS_4MatxIiLi2ELi1EEES5_NS_10Matx_SubOpE, symObjAddr: 0xEAFC, symBinAddr: 0x100012090, symSize: 0x70 }
  - { offsetInCU: 0x261B6, offset: 0x40972, size: 0x8, addend: 0x0, symName: __ZN2cv10Matx_SubOpC1ERKS0_, symObjAddr: 0xEB6C, symBinAddr: 0x100012100, symSize: 0x34 }
  - { offsetInCU: 0x261EA, offset: 0x409A6, size: 0x8, addend: 0x0, symName: __ZN2cv4MatxIiLi2ELi1EEC2ERKS1_S3_NS_10Matx_SubOpE, symObjAddr: 0xEBA0, symBinAddr: 0x100012134, symSize: 0x94 }
  - { offsetInCU: 0x2625D, offset: 0x40A19, size: 0x8, addend: 0x0, symName: __ZN2cv10Matx_SubOpC2ERKS0_, symObjAddr: 0xEC34, symBinAddr: 0x1000121C8, symSize: 0x18 }
  - { offsetInCU: 0x26292, offset: 0x40A4E, size: 0x8, addend: 0x0, symName: __ZNK2cv3VecIiLi2EEixEi, symObjAddr: 0xEC60, symBinAddr: 0x1000121F4, symSize: 0x20 }
  - { offsetInCU: 0x262CA, offset: 0x40A86, size: 0x8, addend: 0x0, symName: __ZNSt3__16vectorIdNS_9allocatorIdEEEC2EmRKd, symObjAddr: 0xEC80, symBinAddr: 0x100012214, symSize: 0xE8 }
  - { offsetInCU: 0x2632D, offset: 0x40AE9, size: 0x8, addend: 0x0, symName: __ZNSt3__117__compressed_pairIPdNS_9allocatorIdEEEC1B7v160006IDnNS_18__default_init_tagEEEOT_OT0_, symObjAddr: 0xED68, symBinAddr: 0x1000122FC, symSize: 0x3C }
  - { offsetInCU: 0x26384, offset: 0x40B40, size: 0x8, addend: 0x0, symName: __ZNSt3__16vectorIdNS_9allocatorIdEEE16__destroy_vectorC1ERS3_, symObjAddr: 0xEDE4, symBinAddr: 0x100012378, symSize: 0x34 }
  - { offsetInCU: 0x263BD, offset: 0x40B79, size: 0x8, addend: 0x0, symName: __ZNSt3__16vectorIdNS_9allocatorIdEEE11__vallocateB7v160006Em, symObjAddr: 0xEE28, symBinAddr: 0x1000123BC, symSize: 0xAC }
  - { offsetInCU: 0x26403, offset: 0x40BBF, size: 0x8, addend: 0x0, symName: __ZNSt3__16vectorIdNS_9allocatorIdEEE18__construct_at_endEmRKd, symObjAddr: 0xEED4, symBinAddr: 0x100012468, symSize: 0xD0 }
  - { offsetInCU: 0x2648A, offset: 0x40C46, size: 0x8, addend: 0x0, symName: __ZNSt3__128__exception_guard_exceptionsINS_6vectorIdNS_9allocatorIdEEE16__destroy_vectorEE10__completeB7v160006Ev, symObjAddr: 0xEFA4, symBinAddr: 0x100012538, symSize: 0x1C }
  - { offsetInCU: 0x264B0, offset: 0x40C6C, size: 0x8, addend: 0x0, symName: __ZNSt3__128__exception_guard_exceptionsINS_6vectorIdNS_9allocatorIdEEE16__destroy_vectorEED1B7v160006Ev, symObjAddr: 0xEFC0, symBinAddr: 0x100012554, symSize: 0x2C }
  - { offsetInCU: 0x264D9, offset: 0x40C95, size: 0x8, addend: 0x0, symName: __ZNSt3__117__compressed_pairIPdNS_9allocatorIdEEEC2B7v160006IDnNS_18__default_init_tagEEEOT_OT0_, symObjAddr: 0xEFEC, symBinAddr: 0x100012580, symSize: 0x40 }
  - { offsetInCU: 0x26530, offset: 0x40CEC, size: 0x8, addend: 0x0, symName: __ZNSt3__122__compressed_pair_elemIPdLi0ELb0EEC2B7v160006IDnvEEOT_, symObjAddr: 0xF02C, symBinAddr: 0x1000125C0, symSize: 0x1C }
  - { offsetInCU: 0x26573, offset: 0x40D2F, size: 0x8, addend: 0x0, symName: __ZNSt3__122__compressed_pair_elemINS_9allocatorIdEELi1ELb1EEC2B7v160006ENS_18__default_init_tagE, symObjAddr: 0xF048, symBinAddr: 0x1000125DC, symSize: 0x2C }
  - { offsetInCU: 0x265A7, offset: 0x40D63, size: 0x8, addend: 0x0, symName: __ZNSt3__19allocatorIdEC2B7v160006Ev, symObjAddr: 0xF074, symBinAddr: 0x100012608, symSize: 0x2C }
  - { offsetInCU: 0x265D0, offset: 0x40D8C, size: 0x8, addend: 0x0, symName: __ZNSt3__116__non_trivial_ifILb1ENS_9allocatorIdEEEC2B7v160006Ev, symObjAddr: 0xF0A0, symBinAddr: 0x100012634, symSize: 0x14 }
  - { offsetInCU: 0x265FA, offset: 0x40DB6, size: 0x8, addend: 0x0, symName: __ZNSt3__128__exception_guard_exceptionsINS_6vectorIdNS_9allocatorIdEEE16__destroy_vectorEEC1B7v160006ES5_, symObjAddr: 0xF0B4, symBinAddr: 0x100012648, symSize: 0x34 }
  - { offsetInCU: 0x26631, offset: 0x40DED, size: 0x8, addend: 0x0, symName: __ZNSt3__128__exception_guard_exceptionsINS_6vectorIdNS_9allocatorIdEEE16__destroy_vectorEEC2B7v160006ES5_, symObjAddr: 0xF0E8, symBinAddr: 0x10001267C, symSize: 0x24 }
  - { offsetInCU: 0x26669, offset: 0x40E25, size: 0x8, addend: 0x0, symName: __ZNSt3__16vectorIdNS_9allocatorIdEEE16__destroy_vectorC2ERS3_, symObjAddr: 0xF10C, symBinAddr: 0x1000126A0, symSize: 0x20 }
  - { offsetInCU: 0x266A3, offset: 0x40E5F, size: 0x8, addend: 0x0, symName: __ZNKSt3__16vectorIdNS_9allocatorIdEEE8max_sizeEv, symObjAddr: 0xF12C, symBinAddr: 0x1000126C0, symSize: 0x60 }
  - { offsetInCU: 0x266CB, offset: 0x40E87, size: 0x8, addend: 0x0, symName: __ZNKSt3__16vectorIdNS_9allocatorIdEEE20__throw_length_errorB7v160006Ev, symObjAddr: 0xF18C, symBinAddr: 0x100012720, symSize: 0x1C }
  - { offsetInCU: 0x266F1, offset: 0x40EAD, size: 0x8, addend: 0x0, symName: __ZNKSt3__16vectorIdNS_9allocatorIdEEE14__annotate_newB7v160006Em, symObjAddr: 0xF1E8, symBinAddr: 0x10001277C, symSize: 0xAC }
  - { offsetInCU: 0x26730, offset: 0x40EEC, size: 0x8, addend: 0x0, symName: __ZNSt3__116allocator_traitsINS_9allocatorIdEEE8max_sizeB7v160006IS2_vEEmRKS2_, symObjAddr: 0xF294, symBinAddr: 0x100012828, symSize: 0x24 }
  - { offsetInCU: 0x26761, offset: 0x40F1D, size: 0x8, addend: 0x0, symName: __ZNKSt3__16vectorIdNS_9allocatorIdEEE7__allocB7v160006Ev, symObjAddr: 0xF2B8, symBinAddr: 0x10001284C, symSize: 0x28 }
  - { offsetInCU: 0x26787, offset: 0x40F43, size: 0x8, addend: 0x0, symName: __ZNKSt3__19allocatorIdE8max_sizeB7v160006Ev, symObjAddr: 0xF2E0, symBinAddr: 0x100012874, symSize: 0x14 }
  - { offsetInCU: 0x267AD, offset: 0x40F69, size: 0x8, addend: 0x0, symName: __ZNKSt3__117__compressed_pairIPdNS_9allocatorIdEEE6secondB7v160006Ev, symObjAddr: 0xF2F4, symBinAddr: 0x100012888, symSize: 0x24 }
  - { offsetInCU: 0x267D3, offset: 0x40F8F, size: 0x8, addend: 0x0, symName: __ZNKSt3__122__compressed_pair_elemINS_9allocatorIdEELi1ELb1EE5__getB7v160006Ev, symObjAddr: 0xF318, symBinAddr: 0x1000128AC, symSize: 0x14 }
  - { offsetInCU: 0x267F9, offset: 0x40FB5, size: 0x8, addend: 0x0, symName: __ZNSt3__19allocatorIdE8allocateB7v160006Em, symObjAddr: 0xF32C, symBinAddr: 0x1000128C0, symSize: 0x58 }
  - { offsetInCU: 0x26846, offset: 0x41002, size: 0x8, addend: 0x0, symName: __ZNSt3__16vectorIdNS_9allocatorIdEEE21_ConstructTransactionC1B7v160006ERS3_m, symObjAddr: 0xF384, symBinAddr: 0x100012918, symSize: 0x3C }
  - { offsetInCU: 0x2688E, offset: 0x4104A, size: 0x8, addend: 0x0, symName: __ZNSt3__116allocator_traitsINS_9allocatorIdEEE9constructB7v160006IdJRKdEvEEvRS2_PT_DpOT0_, symObjAddr: 0xF3C0, symBinAddr: 0x100012954, symSize: 0x34 }
  - { offsetInCU: 0x268EB, offset: 0x410A7, size: 0x8, addend: 0x0, symName: __ZNSt3__16vectorIdNS_9allocatorIdEEE21_ConstructTransactionD1B7v160006Ev, symObjAddr: 0xF3F4, symBinAddr: 0x100012988, symSize: 0x2C }
  - { offsetInCU: 0x26914, offset: 0x410D0, size: 0x8, addend: 0x0, symName: __ZNSt3__16vectorIdNS_9allocatorIdEEE21_ConstructTransactionC2B7v160006ERS3_m, symObjAddr: 0xF420, symBinAddr: 0x1000129B4, symSize: 0x44 }
  - { offsetInCU: 0x2695E, offset: 0x4111A, size: 0x8, addend: 0x0, symName: __ZNSt3__19allocatorIdE9constructB7v160006IdJRKdEEEvPT_DpOT0_, symObjAddr: 0xF464, symBinAddr: 0x1000129F8, symSize: 0x28 }
  - { offsetInCU: 0x269B5, offset: 0x41171, size: 0x8, addend: 0x0, symName: __ZNSt3__16vectorIdNS_9allocatorIdEEE21_ConstructTransactionD2B7v160006Ev, symObjAddr: 0xF48C, symBinAddr: 0x100012A20, symSize: 0x20 }
  - { offsetInCU: 0x269DF, offset: 0x4119B, size: 0x8, addend: 0x0, symName: __ZNSt3__128__exception_guard_exceptionsINS_6vectorIdNS_9allocatorIdEEE16__destroy_vectorEED2B7v160006Ev, symObjAddr: 0xF4AC, symBinAddr: 0x100012A40, symSize: 0x50 }
  - { offsetInCU: 0x26A08, offset: 0x411C4, size: 0x8, addend: 0x0, symName: __ZNSt3__16vectorIdNS_9allocatorIdEEE16__destroy_vectorclB7v160006Ev, symObjAddr: 0xF4FC, symBinAddr: 0x100012A90, symSize: 0x9C }
  - { offsetInCU: 0x26A2E, offset: 0x411EA, size: 0x8, addend: 0x0, symName: __ZNKSt3__16vectorIdNS_9allocatorIdEEE17__annotate_deleteB7v160006Ev, symObjAddr: 0xF598, symBinAddr: 0x100012B2C, symSize: 0xB8 }
  - { offsetInCU: 0x26A54, offset: 0x41210, size: 0x8, addend: 0x0, symName: __ZNSt3__16vectorIdNS_9allocatorIdEEED2B7v160006Ev, symObjAddr: 0xF660, symBinAddr: 0x100012BF4, symSize: 0x44 }
  - { offsetInCU: 0x26A7D, offset: 0x41239, size: 0x8, addend: 0x0, symName: __ZNSt3__16vectorIN2cv3VecIiLi2EEENS_9allocatorIS3_EEEC2EmRKS3_, symObjAddr: 0xF6A4, symBinAddr: 0x100012C38, symSize: 0xE8 }
  - { offsetInCU: 0x26AE0, offset: 0x4129C, size: 0x8, addend: 0x0, symName: __ZNSt3__117__compressed_pairIPN2cv3VecIiLi2EEENS_9allocatorIS3_EEEC1B7v160006IDnNS_18__default_init_tagEEEOT_OT0_, symObjAddr: 0xF78C, symBinAddr: 0x100012D20, symSize: 0x3C }
  - { offsetInCU: 0x26B37, offset: 0x412F3, size: 0x8, addend: 0x0, symName: __ZNSt3__16vectorIN2cv3VecIiLi2EEENS_9allocatorIS3_EEE16__destroy_vectorC1ERS6_, symObjAddr: 0xF808, symBinAddr: 0x100012D9C, symSize: 0x34 }
  - { offsetInCU: 0x26B70, offset: 0x4132C, size: 0x8, addend: 0x0, symName: __ZNSt3__16vectorIN2cv3VecIiLi2EEENS_9allocatorIS3_EEE11__vallocateB7v160006Em, symObjAddr: 0xF84C, symBinAddr: 0x100012DE0, symSize: 0xAC }
  - { offsetInCU: 0x26BB6, offset: 0x41372, size: 0x8, addend: 0x0, symName: __ZNSt3__16vectorIN2cv3VecIiLi2EEENS_9allocatorIS3_EEE18__construct_at_endEmRKS3_, symObjAddr: 0xF8F8, symBinAddr: 0x100012E8C, symSize: 0xD0 }
  - { offsetInCU: 0x26C3D, offset: 0x413F9, size: 0x8, addend: 0x0, symName: __ZNSt3__128__exception_guard_exceptionsINS_6vectorIN2cv3VecIiLi2EEENS_9allocatorIS4_EEE16__destroy_vectorEE10__completeB7v160006Ev, symObjAddr: 0xF9C8, symBinAddr: 0x100012F5C, symSize: 0x1C }
  - { offsetInCU: 0x26C63, offset: 0x4141F, size: 0x8, addend: 0x0, symName: __ZNSt3__128__exception_guard_exceptionsINS_6vectorIN2cv3VecIiLi2EEENS_9allocatorIS4_EEE16__destroy_vectorEED1B7v160006Ev, symObjAddr: 0xF9E4, symBinAddr: 0x100012F78, symSize: 0x2C }
  - { offsetInCU: 0x26C8C, offset: 0x41448, size: 0x8, addend: 0x0, symName: __ZNSt3__117__compressed_pairIPN2cv3VecIiLi2EEENS_9allocatorIS3_EEEC2B7v160006IDnNS_18__default_init_tagEEEOT_OT0_, symObjAddr: 0xFA10, symBinAddr: 0x100012FA4, symSize: 0x40 }
  - { offsetInCU: 0x26CE3, offset: 0x4149F, size: 0x8, addend: 0x0, symName: __ZNSt3__122__compressed_pair_elemIPN2cv3VecIiLi2EEELi0ELb0EEC2B7v160006IDnvEEOT_, symObjAddr: 0xFA50, symBinAddr: 0x100012FE4, symSize: 0x1C }
  - { offsetInCU: 0x26D26, offset: 0x414E2, size: 0x8, addend: 0x0, symName: __ZNSt3__122__compressed_pair_elemINS_9allocatorIN2cv3VecIiLi2EEEEELi1ELb1EEC2B7v160006ENS_18__default_init_tagE, symObjAddr: 0xFA6C, symBinAddr: 0x100013000, symSize: 0x2C }
  - { offsetInCU: 0x26D5A, offset: 0x41516, size: 0x8, addend: 0x0, symName: __ZNSt3__19allocatorIN2cv3VecIiLi2EEEEC2B7v160006Ev, symObjAddr: 0xFA98, symBinAddr: 0x10001302C, symSize: 0x2C }
  - { offsetInCU: 0x26D83, offset: 0x4153F, size: 0x8, addend: 0x0, symName: __ZNSt3__116__non_trivial_ifILb1ENS_9allocatorIN2cv3VecIiLi2EEEEEEC2B7v160006Ev, symObjAddr: 0xFAC4, symBinAddr: 0x100013058, symSize: 0x14 }
  - { offsetInCU: 0x26DAD, offset: 0x41569, size: 0x8, addend: 0x0, symName: __ZNSt3__128__exception_guard_exceptionsINS_6vectorIN2cv3VecIiLi2EEENS_9allocatorIS4_EEE16__destroy_vectorEEC1B7v160006ES8_, symObjAddr: 0xFAD8, symBinAddr: 0x10001306C, symSize: 0x34 }
  - { offsetInCU: 0x26DE4, offset: 0x415A0, size: 0x8, addend: 0x0, symName: __ZNSt3__128__exception_guard_exceptionsINS_6vectorIN2cv3VecIiLi2EEENS_9allocatorIS4_EEE16__destroy_vectorEEC2B7v160006ES8_, symObjAddr: 0xFB0C, symBinAddr: 0x1000130A0, symSize: 0x24 }
  - { offsetInCU: 0x26E1C, offset: 0x415D8, size: 0x8, addend: 0x0, symName: __ZNSt3__16vectorIN2cv3VecIiLi2EEENS_9allocatorIS3_EEE16__destroy_vectorC2ERS6_, symObjAddr: 0xFB30, symBinAddr: 0x1000130C4, symSize: 0x20 }
  - { offsetInCU: 0x26E56, offset: 0x41612, size: 0x8, addend: 0x0, symName: __ZNKSt3__16vectorIN2cv3VecIiLi2EEENS_9allocatorIS3_EEE8max_sizeEv, symObjAddr: 0xFB50, symBinAddr: 0x1000130E4, symSize: 0x60 }
  - { offsetInCU: 0x26E7E, offset: 0x4163A, size: 0x8, addend: 0x0, symName: __ZNKSt3__16vectorIN2cv3VecIiLi2EEENS_9allocatorIS3_EEE20__throw_length_errorB7v160006Ev, symObjAddr: 0xFBB0, symBinAddr: 0x100013144, symSize: 0x1C }
  - { offsetInCU: 0x26EA4, offset: 0x41660, size: 0x8, addend: 0x0, symName: __ZNSt3__16vectorIN2cv3VecIiLi2EEENS_9allocatorIS3_EEE7__allocB7v160006Ev, symObjAddr: 0xFC0C, symBinAddr: 0x1000131A0, symSize: 0x28 }
  - { offsetInCU: 0x26ECA, offset: 0x41686, size: 0x8, addend: 0x0, symName: __ZNSt3__16vectorIN2cv3VecIiLi2EEENS_9allocatorIS3_EEE9__end_capB7v160006Ev, symObjAddr: 0xFC34, symBinAddr: 0x1000131C8, symSize: 0x28 }
  - { offsetInCU: 0x26EF0, offset: 0x416AC, size: 0x8, addend: 0x0, symName: __ZNKSt3__16vectorIN2cv3VecIiLi2EEENS_9allocatorIS3_EEE14__annotate_newB7v160006Em, symObjAddr: 0xFC5C, symBinAddr: 0x1000131F0, symSize: 0xAC }
  - { offsetInCU: 0x26F2F, offset: 0x416EB, size: 0x8, addend: 0x0, symName: __ZNSt3__116allocator_traitsINS_9allocatorIN2cv3VecIiLi2EEEEEE8max_sizeB7v160006IS5_vEEmRKS5_, symObjAddr: 0xFD08, symBinAddr: 0x10001329C, symSize: 0x24 }
  - { offsetInCU: 0x26F60, offset: 0x4171C, size: 0x8, addend: 0x0, symName: __ZNKSt3__16vectorIN2cv3VecIiLi2EEENS_9allocatorIS3_EEE7__allocB7v160006Ev, symObjAddr: 0xFD2C, symBinAddr: 0x1000132C0, symSize: 0x28 }
  - { offsetInCU: 0x26F86, offset: 0x41742, size: 0x8, addend: 0x0, symName: __ZNKSt3__19allocatorIN2cv3VecIiLi2EEEE8max_sizeB7v160006Ev, symObjAddr: 0xFD54, symBinAddr: 0x1000132E8, symSize: 0x14 }
  - { offsetInCU: 0x26FAC, offset: 0x41768, size: 0x8, addend: 0x0, symName: __ZNKSt3__117__compressed_pairIPN2cv3VecIiLi2EEENS_9allocatorIS3_EEE6secondB7v160006Ev, symObjAddr: 0xFD68, symBinAddr: 0x1000132FC, symSize: 0x24 }
  - { offsetInCU: 0x26FD2, offset: 0x4178E, size: 0x8, addend: 0x0, symName: __ZNKSt3__122__compressed_pair_elemINS_9allocatorIN2cv3VecIiLi2EEEEELi1ELb1EE5__getB7v160006Ev, symObjAddr: 0xFD8C, symBinAddr: 0x100013320, symSize: 0x14 }
  - { offsetInCU: 0x26FF8, offset: 0x417B4, size: 0x8, addend: 0x0, symName: __ZNSt3__19allocatorIN2cv3VecIiLi2EEEE8allocateB7v160006Em, symObjAddr: 0xFDA0, symBinAddr: 0x100013334, symSize: 0x58 }
  - { offsetInCU: 0x2702C, offset: 0x417E8, size: 0x8, addend: 0x0, symName: __ZNSt3__117__compressed_pairIPN2cv3VecIiLi2EEENS_9allocatorIS3_EEE6secondB7v160006Ev, symObjAddr: 0xFDF8, symBinAddr: 0x10001338C, symSize: 0x24 }
  - { offsetInCU: 0x27052, offset: 0x4180E, size: 0x8, addend: 0x0, symName: __ZNSt3__122__compressed_pair_elemINS_9allocatorIN2cv3VecIiLi2EEEEELi1ELb1EE5__getB7v160006Ev, symObjAddr: 0xFE1C, symBinAddr: 0x1000133B0, symSize: 0x14 }
  - { offsetInCU: 0x27078, offset: 0x41834, size: 0x8, addend: 0x0, symName: __ZNSt3__117__compressed_pairIPN2cv3VecIiLi2EEENS_9allocatorIS3_EEE5firstB7v160006Ev, symObjAddr: 0xFE30, symBinAddr: 0x1000133C4, symSize: 0x24 }
  - { offsetInCU: 0x2709E, offset: 0x4185A, size: 0x8, addend: 0x0, symName: __ZNSt3__122__compressed_pair_elemIPN2cv3VecIiLi2EEELi0ELb0EE5__getB7v160006Ev, symObjAddr: 0xFE54, symBinAddr: 0x1000133E8, symSize: 0x14 }
  - { offsetInCU: 0x270C4, offset: 0x41880, size: 0x8, addend: 0x0, symName: __ZNKSt3__16vectorIN2cv3VecIiLi2EEENS_9allocatorIS3_EEE31__annotate_contiguous_containerB7v160006EPKvS8_S8_S8_, symObjAddr: 0xFE68, symBinAddr: 0x1000133FC, symSize: 0x20 }
  - { offsetInCU: 0x2711A, offset: 0x418D6, size: 0x8, addend: 0x0, symName: __ZNKSt3__16vectorIN2cv3VecIiLi2EEENS_9allocatorIS3_EEE4dataB7v160006Ev, symObjAddr: 0xFE88, symBinAddr: 0x10001341C, symSize: 0x28 }
  - { offsetInCU: 0x27140, offset: 0x418FC, size: 0x8, addend: 0x0, symName: __ZNKSt3__16vectorIN2cv3VecIiLi2EEENS_9allocatorIS3_EEE8capacityB7v160006Ev, symObjAddr: 0xFEB0, symBinAddr: 0x100013444, symSize: 0x40 }
  - { offsetInCU: 0x27166, offset: 0x41922, size: 0x8, addend: 0x0, symName: __ZNKSt3__16vectorIN2cv3VecIiLi2EEENS_9allocatorIS3_EEE9__end_capB7v160006Ev, symObjAddr: 0xFF04, symBinAddr: 0x100013498, symSize: 0x28 }
  - { offsetInCU: 0x2718C, offset: 0x41948, size: 0x8, addend: 0x0, symName: __ZNKSt3__117__compressed_pairIPN2cv3VecIiLi2EEENS_9allocatorIS3_EEE5firstB7v160006Ev, symObjAddr: 0xFF2C, symBinAddr: 0x1000134C0, symSize: 0x24 }
  - { offsetInCU: 0x271B2, offset: 0x4196E, size: 0x8, addend: 0x0, symName: __ZNKSt3__122__compressed_pair_elemIPN2cv3VecIiLi2EEELi0ELb0EE5__getB7v160006Ev, symObjAddr: 0xFF50, symBinAddr: 0x1000134E4, symSize: 0x14 }
  - { offsetInCU: 0x271F1, offset: 0x419AD, size: 0x8, addend: 0x0, symName: __ZNSt3__16vectorIN2cv3VecIiLi2EEENS_9allocatorIS3_EEE21_ConstructTransactionC1B7v160006ERS6_m, symObjAddr: 0xFF64, symBinAddr: 0x1000134F8, symSize: 0x3C }
  - { offsetInCU: 0x27239, offset: 0x419F5, size: 0x8, addend: 0x0, symName: __ZNSt3__116allocator_traitsINS_9allocatorIN2cv3VecIiLi2EEEEEE9constructB7v160006IS4_JRKS4_EvEEvRS5_PT_DpOT0_, symObjAddr: 0xFFA0, symBinAddr: 0x100013534, symSize: 0x34 }
  - { offsetInCU: 0x27296, offset: 0x41A52, size: 0x8, addend: 0x0, symName: __ZNSt3__16vectorIN2cv3VecIiLi2EEENS_9allocatorIS3_EEE21_ConstructTransactionD1B7v160006Ev, symObjAddr: 0xFFD4, symBinAddr: 0x100013568, symSize: 0x2C }
  - { offsetInCU: 0x272BF, offset: 0x41A7B, size: 0x8, addend: 0x0, symName: __ZNSt3__16vectorIN2cv3VecIiLi2EEENS_9allocatorIS3_EEE21_ConstructTransactionC2B7v160006ERS6_m, symObjAddr: 0x10000, symBinAddr: 0x100013594, symSize: 0x44 }
  - { offsetInCU: 0x27309, offset: 0x41AC5, size: 0x8, addend: 0x0, symName: __ZNSt3__19allocatorIN2cv3VecIiLi2EEEE9constructB7v160006IS3_JRKS3_EEEvPT_DpOT0_, symObjAddr: 0x10044, symBinAddr: 0x1000135D8, symSize: 0x30 }
  - { offsetInCU: 0x27360, offset: 0x41B1C, size: 0x8, addend: 0x0, symName: __ZNSt3__16vectorIN2cv3VecIiLi2EEENS_9allocatorIS3_EEE21_ConstructTransactionD2B7v160006Ev, symObjAddr: 0x10074, symBinAddr: 0x100013608, symSize: 0x20 }
  - { offsetInCU: 0x2738A, offset: 0x41B46, size: 0x8, addend: 0x0, symName: __ZNSt3__128__exception_guard_exceptionsINS_6vectorIN2cv3VecIiLi2EEENS_9allocatorIS4_EEE16__destroy_vectorEED2B7v160006Ev, symObjAddr: 0x10094, symBinAddr: 0x100013628, symSize: 0x50 }
  - { offsetInCU: 0x273B3, offset: 0x41B6F, size: 0x8, addend: 0x0, symName: __ZNSt3__16vectorIN2cv3VecIiLi2EEENS_9allocatorIS3_EEE16__destroy_vectorclB7v160006Ev, symObjAddr: 0x100E4, symBinAddr: 0x100013678, symSize: 0x9C }
  - { offsetInCU: 0x273D9, offset: 0x41B95, size: 0x8, addend: 0x0, symName: __ZNKSt3__16vectorIN2cv3VecIiLi2EEENS_9allocatorIS3_EEE17__annotate_deleteB7v160006Ev, symObjAddr: 0x10180, symBinAddr: 0x100013714, symSize: 0xB8 }
  - { offsetInCU: 0x273FF, offset: 0x41BBB, size: 0x8, addend: 0x0, symName: __ZNSt3__16vectorIN2cv3VecIiLi2EEENS_9allocatorIS3_EEE7__clearB7v160006Ev, symObjAddr: 0x10248, symBinAddr: 0x1000137DC, symSize: 0x28 }
  - { offsetInCU: 0x27424, offset: 0x41BE0, size: 0x8, addend: 0x0, symName: __ZNSt3__116allocator_traitsINS_9allocatorIN2cv3VecIiLi2EEEEEE10deallocateB7v160006ERS5_PS4_m, symObjAddr: 0x10270, symBinAddr: 0x100013804, symSize: 0x34 }
  - { offsetInCU: 0x2746A, offset: 0x41C26, size: 0x8, addend: 0x0, symName: __ZNKSt3__16vectorIN2cv3VecIiLi2EEENS_9allocatorIS3_EEE4sizeB7v160006Ev, symObjAddr: 0x102A4, symBinAddr: 0x100013838, symSize: 0x28 }
  - { offsetInCU: 0x27490, offset: 0x41C4C, size: 0x8, addend: 0x0, symName: __ZNSt3__16vectorIN2cv3VecIiLi2EEENS_9allocatorIS3_EEE22__base_destruct_at_endB7v160006EPS3_, symObjAddr: 0x102CC, symBinAddr: 0x100013860, symSize: 0x8C }
  - { offsetInCU: 0x274D5, offset: 0x41C91, size: 0x8, addend: 0x0, symName: __ZNSt3__116allocator_traitsINS_9allocatorIN2cv3VecIiLi2EEEEEE7destroyB7v160006IS4_vEEvRS5_PT_, symObjAddr: 0x10358, symBinAddr: 0x1000138EC, symSize: 0x2C }
  - { offsetInCU: 0x27516, offset: 0x41CD2, size: 0x8, addend: 0x0, symName: __ZNSt3__19allocatorIN2cv3VecIiLi2EEEE7destroyB7v160006EPS3_, symObjAddr: 0x10384, symBinAddr: 0x100013918, symSize: 0x14 }
  - { offsetInCU: 0x2754A, offset: 0x41D06, size: 0x8, addend: 0x0, symName: __ZNSt3__19allocatorIN2cv3VecIiLi2EEEE10deallocateB7v160006EPS3_m, symObjAddr: 0x10398, symBinAddr: 0x10001392C, symSize: 0x40 }
  - { offsetInCU: 0x2758C, offset: 0x41D48, size: 0x8, addend: 0x0, symName: __ZNSt3__16vectorIN2cv3VecIiLi2EEENS_9allocatorIS3_EEED2B7v160006Ev, symObjAddr: 0x103D8, symBinAddr: 0x10001396C, symSize: 0x44 }
  - { offsetInCU: 0x275B5, offset: 0x41D71, size: 0x8, addend: 0x0, symName: __ZNSt3__16vectorIdNS_9allocatorIdEEEC2ERKS3_, symObjAddr: 0x1041C, symBinAddr: 0x1000139B0, symSize: 0x110 }
  - { offsetInCU: 0x27618, offset: 0x41DD4, size: 0x8, addend: 0x0, symName: __ZNSt3__116allocator_traitsINS_9allocatorIdEEE37select_on_container_copy_constructionB7v160006IS2_vvEES2_RKS2_, symObjAddr: 0x1052C, symBinAddr: 0x100013AC0, symSize: 0x10 }
  - { offsetInCU: 0x2764F, offset: 0x41E0B, size: 0x8, addend: 0x0, symName: __ZNSt3__117__compressed_pairIPdNS_9allocatorIdEEEC1B7v160006IDnS3_EEOT_OT0_, symObjAddr: 0x1053C, symBinAddr: 0x100013AD0, symSize: 0x3C }
  - { offsetInCU: 0x276A6, offset: 0x41E62, size: 0x8, addend: 0x0, symName: __ZNSt3__16vectorIdNS_9allocatorIdEEE18__construct_at_endIPdLi0EEEvT_S6_m, symObjAddr: 0x10578, symBinAddr: 0x100013B0C, symSize: 0x8C }
  - { offsetInCU: 0x2771E, offset: 0x41EDA, size: 0x8, addend: 0x0, symName: __ZNSt3__117__compressed_pairIPdNS_9allocatorIdEEEC2B7v160006IDnS3_EEOT_OT0_, symObjAddr: 0x10604, symBinAddr: 0x100013B98, symSize: 0x44 }
  - { offsetInCU: 0x27775, offset: 0x41F31, size: 0x8, addend: 0x0, symName: __ZNSt3__122__compressed_pair_elemINS_9allocatorIdEELi1ELb1EEC2B7v160006IS2_vEEOT_, symObjAddr: 0x10648, symBinAddr: 0x100013BDC, symSize: 0x18 }
  - { offsetInCU: 0x277B8, offset: 0x41F74, size: 0x8, addend: 0x0, symName: __ZNSt3__129_AllocatorDestroyRangeReverseINS_9allocatorIdEEPdEC1B7v160006ERS2_RS3_S6_, symObjAddr: 0x107A0, symBinAddr: 0x100013D34, symSize: 0x44 }
  - { offsetInCU: 0x27810, offset: 0x41FCC, size: 0x8, addend: 0x0, symName: __ZNSt3__116allocator_traitsINS_9allocatorIdEEE9constructB7v160006IdJRdEvEEvRS2_PT_DpOT0_, symObjAddr: 0x107E4, symBinAddr: 0x100013D78, symSize: 0x34 }
  - { offsetInCU: 0x2786D, offset: 0x42029, size: 0x8, addend: 0x0, symName: __ZNSt3__128__exception_guard_exceptionsINS_29_AllocatorDestroyRangeReverseINS_9allocatorIdEEPdEEE10__completeB7v160006Ev, symObjAddr: 0x10818, symBinAddr: 0x100013DAC, symSize: 0x1C }
  - { offsetInCU: 0x27893, offset: 0x4204F, size: 0x8, addend: 0x0, symName: __ZNSt3__128__exception_guard_exceptionsINS_29_AllocatorDestroyRangeReverseINS_9allocatorIdEEPdEEED1B7v160006Ev, symObjAddr: 0x10834, symBinAddr: 0x100013DC8, symSize: 0x2C }
  - { offsetInCU: 0x278BC, offset: 0x42078, size: 0x8, addend: 0x0, symName: __ZNSt3__128__exception_guard_exceptionsINS_29_AllocatorDestroyRangeReverseINS_9allocatorIdEEPdEEEC1B7v160006ES5_, symObjAddr: 0x10860, symBinAddr: 0x100013DF4, symSize: 0x34 }
  - { offsetInCU: 0x278F4, offset: 0x420B0, size: 0x8, addend: 0x0, symName: __ZNSt3__128__exception_guard_exceptionsINS_29_AllocatorDestroyRangeReverseINS_9allocatorIdEEPdEEEC2B7v160006ES5_, symObjAddr: 0x10894, symBinAddr: 0x100013E28, symSize: 0x30 }
  - { offsetInCU: 0x2792D, offset: 0x420E9, size: 0x8, addend: 0x0, symName: __ZNSt3__129_AllocatorDestroyRangeReverseINS_9allocatorIdEEPdEC2B7v160006ERS2_RS3_S6_, symObjAddr: 0x108C4, symBinAddr: 0x100013E58, symSize: 0x38 }
  - { offsetInCU: 0x27987, offset: 0x42143, size: 0x8, addend: 0x0, symName: __ZNSt3__19allocatorIdE9constructB7v160006IdJRdEEEvPT_DpOT0_, symObjAddr: 0x108FC, symBinAddr: 0x100013E90, symSize: 0x28 }
  - { offsetInCU: 0x279DE, offset: 0x4219A, size: 0x8, addend: 0x0, symName: __ZNSt3__128__exception_guard_exceptionsINS_29_AllocatorDestroyRangeReverseINS_9allocatorIdEEPdEEED2B7v160006Ev, symObjAddr: 0x10924, symBinAddr: 0x100013EB8, symSize: 0x50 }
  - { offsetInCU: 0x27A07, offset: 0x421C3, size: 0x8, addend: 0x0, symName: __ZNKSt3__129_AllocatorDestroyRangeReverseINS_9allocatorIdEEPdEclB7v160006Ev, symObjAddr: 0x10974, symBinAddr: 0x100013F08, symSize: 0x68 }
  - { offsetInCU: 0x27A2D, offset: 0x421E9, size: 0x8, addend: 0x0, symName: __ZNSt3__116reverse_iteratorIPdEC1B7v160006ES1_, symObjAddr: 0x10A4C, symBinAddr: 0x100013FE0, symSize: 0x34 }
  - { offsetInCU: 0x27A64, offset: 0x42220, size: 0x8, addend: 0x0, symName: __ZNSt3__116reverse_iteratorIPdEppB7v160006Ev, symObjAddr: 0x10AEC, symBinAddr: 0x100014080, symSize: 0x20 }
  - { offsetInCU: 0x27A8A, offset: 0x42246, size: 0x8, addend: 0x0, symName: __ZNKSt3__116reverse_iteratorIPdE4baseB7v160006Ev, symObjAddr: 0x10B0C, symBinAddr: 0x1000140A0, symSize: 0x18 }
  - { offsetInCU: 0x27AB4, offset: 0x42270, size: 0x8, addend: 0x0, symName: __ZNSt3__119__to_address_helperINS_16reverse_iteratorIPdEEvE6__callB7v160006ERKS3_, symObjAddr: 0x10B24, symBinAddr: 0x1000140B8, symSize: 0x38 }
  - { offsetInCU: 0x27AD8, offset: 0x42294, size: 0x8, addend: 0x0, symName: __ZNKSt3__116reverse_iteratorIPdEptB7v160006Ev, symObjAddr: 0x10B5C, symBinAddr: 0x1000140F0, symSize: 0x24 }
  - { offsetInCU: 0x27AFE, offset: 0x422BA, size: 0x8, addend: 0x0, symName: __ZNKSt3__116reverse_iteratorIPdEdeB7v160006Ev, symObjAddr: 0x10B80, symBinAddr: 0x100014114, symSize: 0x28 }
  - { offsetInCU: 0x27B33, offset: 0x422EF, size: 0x8, addend: 0x0, symName: __ZNSt3__116reverse_iteratorIPdEC2B7v160006ES1_, symObjAddr: 0x10BA8, symBinAddr: 0x10001413C, symSize: 0x28 }
  - { offsetInCU: 0x27B6B, offset: 0x42327, size: 0x8, addend: 0x0, symName: __ZNSt3__111__wrap_iterIPdEmmB7v160006Ev, symObjAddr: 0x11490, symBinAddr: 0x100014A24, symSize: 0x20 }
  - { offsetInCU: 0x27B90, offset: 0x4234C, size: 0x8, addend: 0x0, symName: __ZNSt3__18_IterOpsINS_17_ClassicAlgPolicyEE9iter_swapB7v160006IRNS_11__wrap_iterIPdEES7_EEvOT_OT0_, symObjAddr: 0x114B0, symBinAddr: 0x100014A44, symSize: 0x44 }
  - { offsetInCU: 0x27BDE, offset: 0x4239A, size: 0x8, addend: 0x0, symName: __ZNKSt3__110__identityclIRdEEOT_S4_, symObjAddr: 0x11AFC, symBinAddr: 0x100015090, symSize: 0x18 }
  - { offsetInCU: 0x27C1B, offset: 0x423D7, size: 0x8, addend: 0x0, symName: __ZN2cv3VecIdLi3EEC1Ev, symObjAddr: 0x11B14, symBinAddr: 0x1000150A8, symSize: 0x2C }
  - { offsetInCU: 0x27C47, offset: 0x42403, size: 0x8, addend: 0x0, symName: __ZN2cv3VecIdLi3EEC2Ev, symObjAddr: 0x11B58, symBinAddr: 0x1000150EC, symSize: 0x2C }
  - { offsetInCU: 0x27C73, offset: 0x4242F, size: 0x8, addend: 0x0, symName: __ZN2cv4MatxIdLi3ELi1EEC2Ev, symObjAddr: 0x11B84, symBinAddr: 0x100015118, symSize: 0x60 }
  - { offsetInCU: 0x27CBE, offset: 0x4247A, size: 0x8, addend: 0x0, symName: __ZN2cv3VecIfLi2EEC2Eff, symObjAddr: 0x11BE4, symBinAddr: 0x100015178, symSize: 0x3C }
  - { offsetInCU: 0x27D0A, offset: 0x424C6, size: 0x8, addend: 0x0, symName: __ZN2cv4MatxIfLi2ELi1EEC2Eff, symObjAddr: 0x11C20, symBinAddr: 0x1000151B4, symSize: 0x80 }
  - { offsetInCU: 0x27D71, offset: 0x4252D, size: 0x8, addend: 0x0, symName: __ZN2cv3VecIdLi2EEC1Ev, symObjAddr: 0x11CA0, symBinAddr: 0x100015234, symSize: 0x2C }
  - { offsetInCU: 0x27D9D, offset: 0x42559, size: 0x8, addend: 0x0, symName: __ZN2cv3VecIdLi2EEC2Ev, symObjAddr: 0x11CCC, symBinAddr: 0x100015260, symSize: 0x2C }
  - { offsetInCU: 0x27DC9, offset: 0x42585, size: 0x8, addend: 0x0, symName: __ZN2cv4MatxIdLi2ELi1EEC2Ev, symObjAddr: 0x11CF8, symBinAddr: 0x10001528C, symSize: 0x60 }
  - { offsetInCU: 0x27E23, offset: 0x425DF, size: 0x8, addend: 0x0, symName: __ZN2cv12Matx_ScaleOpC1Ev, symObjAddr: 0x11D58, symBinAddr: 0x1000152EC, symSize: 0x2C }
  - { offsetInCU: 0x27E4C, offset: 0x42608, size: 0x8, addend: 0x0, symName: __ZN2cv3VecIiLi3EEC1IdEERKNS_4MatxIiLi3ELi1EEET_NS_12Matx_ScaleOpE, symObjAddr: 0x11D84, symBinAddr: 0x100015318, symSize: 0x44 }
  - { offsetInCU: 0x27EB2, offset: 0x4266E, size: 0x8, addend: 0x0, symName: __ZN2cv12Matx_ScaleOpC2Ev, symObjAddr: 0x11DC8, symBinAddr: 0x10001535C, symSize: 0x14 }
  - { offsetInCU: 0x27EDC, offset: 0x42698, size: 0x8, addend: 0x0, symName: __ZN2cv3VecIiLi3EEC2IdEERKNS_4MatxIiLi3ELi1EEET_NS_12Matx_ScaleOpE, symObjAddr: 0x11DDC, symBinAddr: 0x100015370, symSize: 0x70 }
  - { offsetInCU: 0x27F42, offset: 0x426FE, size: 0x8, addend: 0x0, symName: __ZN2cv12Matx_ScaleOpC1ERKS0_, symObjAddr: 0x11E4C, symBinAddr: 0x1000153E0, symSize: 0x34 }
  - { offsetInCU: 0x27F76, offset: 0x42732, size: 0x8, addend: 0x0, symName: __ZN2cv4MatxIiLi3ELi1EEC2IdEERKS1_T_NS_12Matx_ScaleOpE, symObjAddr: 0x11E80, symBinAddr: 0x100015414, symSize: 0x98 }
  - { offsetInCU: 0x27FF2, offset: 0x427AE, size: 0x8, addend: 0x0, symName: __ZN2cv12Matx_ScaleOpC2ERKS0_, symObjAddr: 0x11F18, symBinAddr: 0x1000154AC, symSize: 0x18 }
  - { offsetInCU: 0x28027, offset: 0x427E3, size: 0x8, addend: 0x0, symName: __ZN2cv3VecIiLi2EEC1IdEERKNS_4MatxIiLi2ELi1EEET_NS_12Matx_ScaleOpE, symObjAddr: 0x11F68, symBinAddr: 0x1000154FC, symSize: 0x44 }
  - { offsetInCU: 0x2808D, offset: 0x42849, size: 0x8, addend: 0x0, symName: __ZN2cv3VecIiLi2EEC2IdEERKNS_4MatxIiLi2ELi1EEET_NS_12Matx_ScaleOpE, symObjAddr: 0x11FAC, symBinAddr: 0x100015540, symSize: 0x70 }
  - { offsetInCU: 0x280F3, offset: 0x428AF, size: 0x8, addend: 0x0, symName: __ZN2cv4MatxIiLi2ELi1EEC2IdEERKS1_T_NS_12Matx_ScaleOpE, symObjAddr: 0x1201C, symBinAddr: 0x1000155B0, symSize: 0x98 }
  - { offsetInCU: 0x2816F, offset: 0x4292B, size: 0x8, addend: 0x0, symName: __ZN2cv3VecIhLi3EEC2Ehhh, symObjAddr: 0x120B4, symBinAddr: 0x100015648, symSize: 0x44 }
  - { offsetInCU: 0x281CB, offset: 0x42987, size: 0x8, addend: 0x0, symName: __ZN2cv4MatxIhLi3ELi1EEC2Ehhh, symObjAddr: 0x120F8, symBinAddr: 0x10001568C, symSize: 0x8C }
  - { offsetInCU: 0x28240, offset: 0x429FC, size: 0x8, addend: 0x0, symName: __ZN2cv3VecIhLi2EEC2Ehh, symObjAddr: 0x12184, symBinAddr: 0x100015718, symSize: 0x3C }
  - { offsetInCU: 0x2828C, offset: 0x42A48, size: 0x8, addend: 0x0, symName: __ZN2cv4MatxIhLi2ELi1EEC2Ehh, symObjAddr: 0x121C0, symBinAddr: 0x100015754, symSize: 0x80 }
  - { offsetInCU: 0x282F3, offset: 0x42AAF, size: 0x8, addend: 0x0, symName: __ZN2cv3VecIiLi3EEC1Ev, symObjAddr: 0x12240, symBinAddr: 0x1000157D4, symSize: 0x2C }
  - { offsetInCU: 0x2831F, offset: 0x42ADB, size: 0x8, addend: 0x0, symName: __ZN2cv3VecIiLi3EEC2Ev, symObjAddr: 0x12280, symBinAddr: 0x100015814, symSize: 0x2C }
  - { offsetInCU: 0x2834B, offset: 0x42B07, size: 0x8, addend: 0x0, symName: __ZN2cv4MatxIiLi3ELi1EEC2Ev, symObjAddr: 0x122AC, symBinAddr: 0x100015840, symSize: 0x60 }
  - { offsetInCU: 0x28396, offset: 0x42B52, size: 0x8, addend: 0x0, symName: __ZN2cv3VecIiLi2EEC1Ev, symObjAddr: 0x1230C, symBinAddr: 0x1000158A0, symSize: 0x2C }
  - { offsetInCU: 0x283C2, offset: 0x42B7E, size: 0x8, addend: 0x0, symName: __ZN2cv3VecIiLi2EEC2Ev, symObjAddr: 0x12338, symBinAddr: 0x1000158CC, symSize: 0x2C }
  - { offsetInCU: 0x283EE, offset: 0x42BAA, size: 0x8, addend: 0x0, symName: __ZN2cv4MatxIiLi2ELi1EEC2Ev, symObjAddr: 0x12364, symBinAddr: 0x1000158F8, symSize: 0x60 }
  - { offsetInCU: 0x28439, offset: 0x42BF5, size: 0x8, addend: 0x0, symName: __ZNSt3__16vectorIiNS_9allocatorIiEEEC2B7v160006ESt16initializer_listIiE, symObjAddr: 0x123C4, symBinAddr: 0x100015958, symSize: 0x128 }
  - { offsetInCU: 0x2848C, offset: 0x42C48, size: 0x8, addend: 0x0, symName: __ZNKSt16initializer_listIiE4sizeB7v160006Ev, symObjAddr: 0x1252C, symBinAddr: 0x100015AC0, symSize: 0x18 }
  - { offsetInCU: 0x284B2, offset: 0x42C6E, size: 0x8, addend: 0x0, symName: __ZNSt3__16vectorIiNS_9allocatorIiEEE11__vallocateB7v160006Em, symObjAddr: 0x12544, symBinAddr: 0x100015AD8, symSize: 0xAC }
  - { offsetInCU: 0x284F8, offset: 0x42CB4, size: 0x8, addend: 0x0, symName: __ZNSt3__16vectorIiNS_9allocatorIiEEE18__construct_at_endIPKiLi0EEEvT_S7_m, symObjAddr: 0x125F0, symBinAddr: 0x100015B84, symSize: 0x8C }
  - { offsetInCU: 0x28570, offset: 0x42D2C, size: 0x8, addend: 0x0, symName: __ZNKSt16initializer_listIiE5beginB7v160006Ev, symObjAddr: 0x1267C, symBinAddr: 0x100015C10, symSize: 0x18 }
  - { offsetInCU: 0x28596, offset: 0x42D52, size: 0x8, addend: 0x0, symName: __ZNKSt16initializer_listIiE3endB7v160006Ev, symObjAddr: 0x12694, symBinAddr: 0x100015C28, symSize: 0x20 }
  - { offsetInCU: 0x285BC, offset: 0x42D78, size: 0x8, addend: 0x0, symName: __ZNSt3__128__exception_guard_exceptionsINS_6vectorIiNS_9allocatorIiEEE16__destroy_vectorEE10__completeB7v160006Ev, symObjAddr: 0x126B4, symBinAddr: 0x100015C48, symSize: 0x1C }
  - { offsetInCU: 0x285E2, offset: 0x42D9E, size: 0x8, addend: 0x0, symName: __ZNSt3__128__exception_guard_exceptionsINS_6vectorIiNS_9allocatorIiEEE16__destroy_vectorEED1B7v160006Ev, symObjAddr: 0x126D0, symBinAddr: 0x100015C64, symSize: 0x2C }
  - { offsetInCU: 0x2860B, offset: 0x42DC7, size: 0x8, addend: 0x0, symName: __ZNSt3__128__exception_guard_exceptionsINS_6vectorIiNS_9allocatorIiEEE16__destroy_vectorEEC1B7v160006ES5_, symObjAddr: 0x126FC, symBinAddr: 0x100015C90, symSize: 0x34 }
  - { offsetInCU: 0x28642, offset: 0x42DFE, size: 0x8, addend: 0x0, symName: __ZNSt3__128__exception_guard_exceptionsINS_6vectorIiNS_9allocatorIiEEE16__destroy_vectorEEC2B7v160006ES5_, symObjAddr: 0x12730, symBinAddr: 0x100015CC4, symSize: 0x24 }
  - { offsetInCU: 0x2867A, offset: 0x42E36, size: 0x8, addend: 0x0, symName: __ZNKSt3__16vectorIiNS_9allocatorIiEEE8max_sizeEv, symObjAddr: 0x12754, symBinAddr: 0x100015CE8, symSize: 0x60 }
  - { offsetInCU: 0x286A2, offset: 0x42E5E, size: 0x8, addend: 0x0, symName: __ZNKSt3__16vectorIiNS_9allocatorIiEEE20__throw_length_errorB7v160006Ev, symObjAddr: 0x127B4, symBinAddr: 0x100015D48, symSize: 0x1C }
  - { offsetInCU: 0x286C8, offset: 0x42E84, size: 0x8, addend: 0x0, symName: __ZNSt3__16vectorIiNS_9allocatorIiEEE9__end_capB7v160006Ev, symObjAddr: 0x12810, symBinAddr: 0x100015DA4, symSize: 0x28 }
  - { offsetInCU: 0x286EE, offset: 0x42EAA, size: 0x8, addend: 0x0, symName: __ZNKSt3__16vectorIiNS_9allocatorIiEEE14__annotate_newB7v160006Em, symObjAddr: 0x12838, symBinAddr: 0x100015DCC, symSize: 0xAC }
  - { offsetInCU: 0x2872D, offset: 0x42EE9, size: 0x8, addend: 0x0, symName: __ZNSt3__116allocator_traitsINS_9allocatorIiEEE8max_sizeB7v160006IS2_vEEmRKS2_, symObjAddr: 0x128E4, symBinAddr: 0x100015E78, symSize: 0x24 }
  - { offsetInCU: 0x2875E, offset: 0x42F1A, size: 0x8, addend: 0x0, symName: __ZNKSt3__16vectorIiNS_9allocatorIiEEE7__allocB7v160006Ev, symObjAddr: 0x12908, symBinAddr: 0x100015E9C, symSize: 0x28 }
  - { offsetInCU: 0x28784, offset: 0x42F40, size: 0x8, addend: 0x0, symName: __ZNKSt3__19allocatorIiE8max_sizeB7v160006Ev, symObjAddr: 0x12930, symBinAddr: 0x100015EC4, symSize: 0x14 }
  - { offsetInCU: 0x287AA, offset: 0x42F66, size: 0x8, addend: 0x0, symName: __ZNKSt3__117__compressed_pairIPiNS_9allocatorIiEEE6secondB7v160006Ev, symObjAddr: 0x12944, symBinAddr: 0x100015ED8, symSize: 0x24 }
  - { offsetInCU: 0x287D0, offset: 0x42F8C, size: 0x8, addend: 0x0, symName: __ZNKSt3__122__compressed_pair_elemINS_9allocatorIiEELi1ELb1EE5__getB7v160006Ev, symObjAddr: 0x12968, symBinAddr: 0x100015EFC, symSize: 0x14 }
  - { offsetInCU: 0x287F6, offset: 0x42FB2, size: 0x8, addend: 0x0, symName: __ZNSt3__19allocatorIiE8allocateB7v160006Em, symObjAddr: 0x1297C, symBinAddr: 0x100015F10, symSize: 0x58 }
  - { offsetInCU: 0x2882A, offset: 0x42FE6, size: 0x8, addend: 0x0, symName: __ZNSt3__117__compressed_pairIPiNS_9allocatorIiEEE5firstB7v160006Ev, symObjAddr: 0x129D4, symBinAddr: 0x100015F68, symSize: 0x24 }
  - { offsetInCU: 0x28850, offset: 0x4300C, size: 0x8, addend: 0x0, symName: __ZNSt3__122__compressed_pair_elemIPiLi0ELb0EE5__getB7v160006Ev, symObjAddr: 0x129F8, symBinAddr: 0x100015F8C, symSize: 0x14 }
  - { offsetInCU: 0x2888F, offset: 0x4304B, size: 0x8, addend: 0x0, symName: __ZNSt3__16vectorIiNS_9allocatorIiEEE21_ConstructTransactionC1B7v160006ERS3_m, symObjAddr: 0x12A0C, symBinAddr: 0x100015FA0, symSize: 0x3C }
  - { offsetInCU: 0x288D8, offset: 0x43094, size: 0x8, addend: 0x0, symName: __ZNSt3__16vectorIiNS_9allocatorIiEEE21_ConstructTransactionD1B7v160006Ev, symObjAddr: 0x12A80, symBinAddr: 0x100016014, symSize: 0x2C }
  - { offsetInCU: 0x28901, offset: 0x430BD, size: 0x8, addend: 0x0, symName: __ZNSt3__16vectorIiNS_9allocatorIiEEE21_ConstructTransactionC2B7v160006ERS3_m, symObjAddr: 0x12AAC, symBinAddr: 0x100016040, symSize: 0x44 }
  - { offsetInCU: 0x2896E, offset: 0x4312A, size: 0x8, addend: 0x0, symName: __ZNKSt3__114__copy_trivialclB7v160006IKiiLi0EEENS_4pairIPT_PT0_EES5_S5_S7_, symObjAddr: 0x12CCC, symBinAddr: 0x100016260, symSize: 0x48 }
  - { offsetInCU: 0x289F5, offset: 0x431B1, size: 0x8, addend: 0x0, symName: __ZNSt3__14pairIPKiS2_EC1B7v160006IS2_S2_LPv0EEEOT_OT0_, symObjAddr: 0x12E34, symBinAddr: 0x1000163C8, symSize: 0x3C }
  - { offsetInCU: 0x28A53, offset: 0x4320F, size: 0x8, addend: 0x0, symName: __ZNSt3__14pairIPKiS2_EC2B7v160006IS2_S2_LPv0EEEOT_OT0_, symObjAddr: 0x12E70, symBinAddr: 0x100016404, symSize: 0x34 }
  - { offsetInCU: 0x28AB1, offset: 0x4326D, size: 0x8, addend: 0x0, symName: __ZNSt3__118__unwrap_iter_implIPKiLb1EE8__unwrapB7v160006ES2_, symObjAddr: 0x12EA4, symBinAddr: 0x100016438, symSize: 0x24 }
  - { offsetInCU: 0x28ADF, offset: 0x4329B, size: 0x8, addend: 0x0, symName: __ZNSt3__14pairIPKiPiEC1B7v160006IRS2_S3_LPv0EEEOT_OT0_, symObjAddr: 0x12F98, symBinAddr: 0x10001652C, symSize: 0x3C }
  - { offsetInCU: 0x28B3D, offset: 0x432F9, size: 0x8, addend: 0x0, symName: __ZNSt3__14pairIPKiPiEC2B7v160006IRS2_S3_LPv0EEEOT_OT0_, symObjAddr: 0x12FD4, symBinAddr: 0x100016568, symSize: 0x34 }
  - { offsetInCU: 0x28B9B, offset: 0x43357, size: 0x8, addend: 0x0, symName: __ZNSt3__118__unwrap_iter_implIPiLb1EE8__unwrapB7v160006ES1_, symObjAddr: 0x13008, symBinAddr: 0x10001659C, symSize: 0x24 }
  - { offsetInCU: 0x28BBF, offset: 0x4337B, size: 0x8, addend: 0x0, symName: __ZNSt3__14pairIPKiPiEC1B7v160006IS2_S3_LPv0EEEOT_OT0_, symObjAddr: 0x1302C, symBinAddr: 0x1000165C0, symSize: 0x3C }
  - { offsetInCU: 0x28C1D, offset: 0x433D9, size: 0x8, addend: 0x0, symName: __ZNSt3__14pairIPKiPiEC2B7v160006IS2_S3_LPv0EEEOT_OT0_, symObjAddr: 0x13068, symBinAddr: 0x1000165FC, symSize: 0x34 }
  - { offsetInCU: 0x28C7B, offset: 0x43437, size: 0x8, addend: 0x0, symName: __ZNSt3__118__unwrap_iter_implIPKiLb1EE8__rewrapB7v160006ES2_S2_, symObjAddr: 0x130D8, symBinAddr: 0x10001666C, symSize: 0x50 }
  - { offsetInCU: 0x28CAC, offset: 0x43468, size: 0x8, addend: 0x0, symName: __ZNSt3__118__unwrap_iter_implIPiLb1EE8__rewrapB7v160006ES1_S1_, symObjAddr: 0x13128, symBinAddr: 0x1000166BC, symSize: 0x50 }
  - { offsetInCU: 0x28CDE, offset: 0x4349A, size: 0x8, addend: 0x0, symName: __ZNSt3__16vectorIiNS_9allocatorIiEEE21_ConstructTransactionD2B7v160006Ev, symObjAddr: 0x13178, symBinAddr: 0x10001670C, symSize: 0x20 }
  - { offsetInCU: 0x28D08, offset: 0x434C4, size: 0x8, addend: 0x0, symName: __ZNSt3__128__exception_guard_exceptionsINS_6vectorIiNS_9allocatorIiEEE16__destroy_vectorEED2B7v160006Ev, symObjAddr: 0x13198, symBinAddr: 0x10001672C, symSize: 0x50 }
  - { offsetInCU: 0x28D36, offset: 0x434F2, size: 0x8, addend: 0x0, symName: __ZNSt3__16vectorIiNS_9allocatorIiEEE22__construct_one_at_endB7v160006IJiEEEvDpOT_, symObjAddr: 0x131E8, symBinAddr: 0x10001677C, symSize: 0x90 }
  - { offsetInCU: 0x28D88, offset: 0x43544, size: 0x8, addend: 0x0, symName: __ZNSt3__16vectorIiNS_9allocatorIiEEE21__push_back_slow_pathIiEEvOT_, symObjAddr: 0x13278, symBinAddr: 0x10001680C, symSize: 0xD8 }
  - { offsetInCU: 0x28DE8, offset: 0x435A4, size: 0x8, addend: 0x0, symName: __ZNSt3__116allocator_traitsINS_9allocatorIiEEE9constructB7v160006IiJiEvEEvRS2_PT_DpOT0_, symObjAddr: 0x13350, symBinAddr: 0x1000168E4, symSize: 0x34 }
  - { offsetInCU: 0x28E45, offset: 0x43601, size: 0x8, addend: 0x0, symName: __ZNSt3__19allocatorIiE9constructB7v160006IiJiEEEvPT_DpOT0_, symObjAddr: 0x13384, symBinAddr: 0x100016918, symSize: 0x28 }
  - { offsetInCU: 0x28E9C, offset: 0x43658, size: 0x8, addend: 0x0, symName: __ZNKSt3__16vectorIiNS_9allocatorIiEEE11__recommendB7v160006Em, symObjAddr: 0x133AC, symBinAddr: 0x100016940, symSize: 0xB4 }
  - { offsetInCU: 0x28EF4, offset: 0x436B0, size: 0x8, addend: 0x0, symName: __ZNSt3__114__split_bufferIiRNS_9allocatorIiEEEC1EmmS3_, symObjAddr: 0x13460, symBinAddr: 0x1000169F4, symSize: 0x44 }
  - { offsetInCU: 0x28F4A, offset: 0x43706, size: 0x8, addend: 0x0, symName: __ZNSt3__114__split_bufferIiRNS_9allocatorIiEEED1Ev, symObjAddr: 0x135BC, symBinAddr: 0x100016B50, symSize: 0x2C }
  - { offsetInCU: 0x28F76, offset: 0x43732, size: 0x8, addend: 0x0, symName: __ZNSt3__114__split_bufferIiRNS_9allocatorIiEEEC2EmmS3_, symObjAddr: 0x135E8, symBinAddr: 0x100016B7C, symSize: 0xD4 }
  - { offsetInCU: 0x28FEB, offset: 0x437A7, size: 0x8, addend: 0x0, symName: __ZNSt3__117__compressed_pairIPiRNS_9allocatorIiEEEC1B7v160006IDnS4_EEOT_OT0_, symObjAddr: 0x136BC, symBinAddr: 0x100016C50, symSize: 0x3C }
  - { offsetInCU: 0x29042, offset: 0x437FE, size: 0x8, addend: 0x0, symName: __ZNSt3__114__split_bufferIiRNS_9allocatorIiEEE7__allocB7v160006Ev, symObjAddr: 0x136F8, symBinAddr: 0x100016C8C, symSize: 0x28 }
  - { offsetInCU: 0x29068, offset: 0x43824, size: 0x8, addend: 0x0, symName: __ZNSt3__114__split_bufferIiRNS_9allocatorIiEEE9__end_capB7v160006Ev, symObjAddr: 0x13720, symBinAddr: 0x100016CB4, symSize: 0x28 }
  - { offsetInCU: 0x2908E, offset: 0x4384A, size: 0x8, addend: 0x0, symName: __ZNSt3__117__compressed_pairIPiRNS_9allocatorIiEEEC2B7v160006IDnS4_EEOT_OT0_, symObjAddr: 0x13748, symBinAddr: 0x100016CDC, symSize: 0x48 }
  - { offsetInCU: 0x290E5, offset: 0x438A1, size: 0x8, addend: 0x0, symName: __ZNSt3__122__compressed_pair_elemIRNS_9allocatorIiEELi1ELb0EEC2B7v160006IS3_vEEOT_, symObjAddr: 0x13790, symBinAddr: 0x100016D24, symSize: 0x20 }
  - { offsetInCU: 0x29128, offset: 0x438E4, size: 0x8, addend: 0x0, symName: __ZNSt3__117__compressed_pairIPiRNS_9allocatorIiEEE6secondB7v160006Ev, symObjAddr: 0x137B0, symBinAddr: 0x100016D44, symSize: 0x28 }
  - { offsetInCU: 0x2914E, offset: 0x4390A, size: 0x8, addend: 0x0, symName: __ZNSt3__122__compressed_pair_elemIRNS_9allocatorIiEELi1ELb0EE5__getB7v160006Ev, symObjAddr: 0x137D8, symBinAddr: 0x100016D6C, symSize: 0x18 }
  - { offsetInCU: 0x29174, offset: 0x43930, size: 0x8, addend: 0x0, symName: __ZNSt3__117__compressed_pairIPiRNS_9allocatorIiEEE5firstB7v160006Ev, symObjAddr: 0x137F0, symBinAddr: 0x100016D84, symSize: 0x24 }
  - { offsetInCU: 0x2919A, offset: 0x43956, size: 0x8, addend: 0x0, symName: __ZNSt3__116reverse_iteratorIPiEC1B7v160006ES1_, symObjAddr: 0x1388C, symBinAddr: 0x100016E20, symSize: 0x34 }
  - { offsetInCU: 0x291D1, offset: 0x4398D, size: 0x8, addend: 0x0, symName: __ZNKSt3__116reverse_iteratorIPiE4baseB7v160006Ev, symObjAddr: 0x138C0, symBinAddr: 0x100016E54, symSize: 0x18 }
  - { offsetInCU: 0x2921A, offset: 0x439D6, size: 0x8, addend: 0x0, symName: __ZNKSt3__111__move_loopINS_17_ClassicAlgPolicyEEclB7v160006INS_16reverse_iteratorIPiEES6_S6_EENS_4pairIT_T1_EES8_T0_S9_, symObjAddr: 0x13C14, symBinAddr: 0x1000171A8, symSize: 0xA0 }
  - { offsetInCU: 0x29284, offset: 0x43A40, size: 0x8, addend: 0x0, symName: __ZNSt3__18_IterOpsINS_17_ClassicAlgPolicyEE11__iter_moveB7v160006IRNS_16reverse_iteratorIPiEEEENS_9enable_ifIXsr12is_referenceIDTdeclsr3stdE7declvalIRT_EEEEE5valueEDTclsr3stdE4movedeclsr3stdE7declvalISA_EEEEE4typeEOS9_, symObjAddr: 0x13E48, symBinAddr: 0x1000173DC, symSize: 0x28 }
  - { offsetInCU: 0x292B1, offset: 0x43A6D, size: 0x8, addend: 0x0, symName: __ZNKSt3__116reverse_iteratorIPiEdeB7v160006Ev, symObjAddr: 0x13E70, symBinAddr: 0x100017404, symSize: 0x28 }
  - { offsetInCU: 0x292E6, offset: 0x43AA2, size: 0x8, addend: 0x0, symName: __ZNSt3__116reverse_iteratorIPiEppB7v160006Ev, symObjAddr: 0x13E98, symBinAddr: 0x10001742C, symSize: 0x20 }
  - { offsetInCU: 0x2930C, offset: 0x43AC8, size: 0x8, addend: 0x0, symName: __ZNSt3__18_IterOpsINS_17_ClassicAlgPolicyEE25__validate_iter_referenceB7v160006IRNS_16reverse_iteratorIPiEEEEvv, symObjAddr: 0x13EB8, symBinAddr: 0x10001744C, symSize: 0x4 }
  - { offsetInCU: 0x2932A, offset: 0x43AE6, size: 0x8, addend: 0x0, symName: __ZNSt3__118__unwrap_iter_implINS_16reverse_iteratorIPiEELb0EE8__unwrapB7v160006ES3_, symObjAddr: 0x13EBC, symBinAddr: 0x100017450, symSize: 0x24 }
  - { offsetInCU: 0x29352, offset: 0x43B0E, size: 0x8, addend: 0x0, symName: __ZNSt3__14pairINS_16reverse_iteratorIPiEES3_EC1B7v160006IS3_S3_LPv0EEEOT_OT0_, symObjAddr: 0x13EE0, symBinAddr: 0x100017474, symSize: 0x3C }
  - { offsetInCU: 0x293B0, offset: 0x43B6C, size: 0x8, addend: 0x0, symName: __ZNSt3__14pairINS_16reverse_iteratorIPiEES3_EC2B7v160006IS3_S3_LPv0EEEOT_OT0_, symObjAddr: 0x13F1C, symBinAddr: 0x1000174B0, symSize: 0x34 }
  - { offsetInCU: 0x2940F, offset: 0x43BCB, size: 0x8, addend: 0x0, symName: __ZNSt3__118__unwrap_iter_implINS_16reverse_iteratorIPiEELb0EE8__rewrapB7v160006ES3_S3_, symObjAddr: 0x13F50, symBinAddr: 0x1000174E4, symSize: 0x2C }
  - { offsetInCU: 0x2943D, offset: 0x43BF9, size: 0x8, addend: 0x0, symName: __ZNSt3__116reverse_iteratorIPiEC2B7v160006ES1_, symObjAddr: 0x13F7C, symBinAddr: 0x100017510, symSize: 0x28 }
  - { offsetInCU: 0x29475, offset: 0x43C31, size: 0x8, addend: 0x0, symName: __ZNSt3__114__split_bufferIiRNS_9allocatorIiEEED2Ev, symObjAddr: 0x13FA4, symBinAddr: 0x100017538, symSize: 0x8C }
  - { offsetInCU: 0x294A1, offset: 0x43C5D, size: 0x8, addend: 0x0, symName: __ZNSt3__114__split_bufferIiRNS_9allocatorIiEEE5clearB7v160006Ev, symObjAddr: 0x14030, symBinAddr: 0x1000175C4, symSize: 0x28 }
  - { offsetInCU: 0x294C7, offset: 0x43C83, size: 0x8, addend: 0x0, symName: __ZNKSt3__114__split_bufferIiRNS_9allocatorIiEEE8capacityB7v160006Ev, symObjAddr: 0x14058, symBinAddr: 0x1000175EC, symSize: 0x40 }
  - { offsetInCU: 0x294ED, offset: 0x43CA9, size: 0x8, addend: 0x0, symName: __ZNSt3__114__split_bufferIiRNS_9allocatorIiEEE17__destruct_at_endB7v160006EPi, symObjAddr: 0x14098, symBinAddr: 0x10001762C, symSize: 0x2C }
  - { offsetInCU: 0x29521, offset: 0x43CDD, size: 0x8, addend: 0x0, symName: __ZNSt3__114__split_bufferIiRNS_9allocatorIiEEE17__destruct_at_endB7v160006EPiNS_17integral_constantIbLb0EEE, symObjAddr: 0x140C4, symBinAddr: 0x100017658, symSize: 0x80 }
  - { offsetInCU: 0x29562, offset: 0x43D1E, size: 0x8, addend: 0x0, symName: __ZNKSt3__114__split_bufferIiRNS_9allocatorIiEEE9__end_capB7v160006Ev, symObjAddr: 0x14144, symBinAddr: 0x1000176D8, symSize: 0x28 }
  - { offsetInCU: 0x29588, offset: 0x43D44, size: 0x8, addend: 0x0, symName: __ZNKSt3__117__compressed_pairIPiRNS_9allocatorIiEEE5firstB7v160006Ev, symObjAddr: 0x1416C, symBinAddr: 0x100017700, symSize: 0x24 }
  - { offsetInCU: 0x295AE, offset: 0x43D6A, size: 0x8, addend: 0x0, symName: __ZN2cv10Matx_AddOpC1Ev, symObjAddr: 0x14190, symBinAddr: 0x100017724, symSize: 0x2C }
  - { offsetInCU: 0x295D7, offset: 0x43D93, size: 0x8, addend: 0x0, symName: __ZN2cv3VecIiLi2EEC1ERKNS_4MatxIiLi2ELi1EEES5_NS_10Matx_AddOpE, symObjAddr: 0x141BC, symBinAddr: 0x100017750, symSize: 0x44 }
  - { offsetInCU: 0x29634, offset: 0x43DF0, size: 0x8, addend: 0x0, symName: __ZN2cv10Matx_AddOpC2Ev, symObjAddr: 0x14200, symBinAddr: 0x100017794, symSize: 0x14 }
  - { offsetInCU: 0x2965E, offset: 0x43E1A, size: 0x8, addend: 0x0, symName: __ZN2cv3VecIiLi2EEC2ERKNS_4MatxIiLi2ELi1EEES5_NS_10Matx_AddOpE, symObjAddr: 0x14214, symBinAddr: 0x1000177A8, symSize: 0x70 }
  - { offsetInCU: 0x296BB, offset: 0x43E77, size: 0x8, addend: 0x0, symName: __ZN2cv10Matx_AddOpC1ERKS0_, symObjAddr: 0x14284, symBinAddr: 0x100017818, symSize: 0x34 }
  - { offsetInCU: 0x296EF, offset: 0x43EAB, size: 0x8, addend: 0x0, symName: __ZN2cv4MatxIiLi2ELi1EEC2ERKS1_S3_NS_10Matx_AddOpE, symObjAddr: 0x142B8, symBinAddr: 0x10001784C, symSize: 0x94 }
  - { offsetInCU: 0x29762, offset: 0x43F1E, size: 0x8, addend: 0x0, symName: __ZN2cv10Matx_AddOpC2ERKS0_, symObjAddr: 0x1434C, symBinAddr: 0x1000178E0, symSize: 0x18 }
  - { offsetInCU: 0x2979C, offset: 0x43F58, size: 0x8, addend: 0x0, symName: __ZNSt3__117reference_wrapperIN2cv3MatEEC1B7v160006IRS2_vEEOT_, symObjAddr: 0x14364, symBinAddr: 0x1000178F8, symSize: 0x34 }
  - { offsetInCU: 0x297DE, offset: 0x43F9A, size: 0x8, addend: 0x0, symName: __ZNSt3__117reference_wrapperIN2cv3MatEEC2B7v160006IRS2_vEEOT_, symObjAddr: 0x14398, symBinAddr: 0x10001792C, symSize: 0x28 }
  - { offsetInCU: 0x2983F, offset: 0x43FFB, size: 0x8, addend: 0x0, symName: __ZNSt3__16vectorIdNS_9allocatorIdEEEC2B7v160006Ev, symObjAddr: 0x143C0, symBinAddr: 0x100017954, symSize: 0x54 }
  - { offsetInCU: 0x29868, offset: 0x44024, size: 0x8, addend: 0x0, symName: __ZNSt3__16vectorINS0_IdNS_9allocatorIdEEEENS1_IS3_EEE22__construct_one_at_endB7v160006IJS3_EEEvDpOT_, symObjAddr: 0x14414, symBinAddr: 0x1000179A8, symSize: 0x90 }
  - { offsetInCU: 0x298BA, offset: 0x44076, size: 0x8, addend: 0x0, symName: __ZNSt3__16vectorINS0_IdNS_9allocatorIdEEEENS1_IS3_EEE21__push_back_slow_pathIS3_EEvOT_, symObjAddr: 0x144A4, symBinAddr: 0x100017A38, symSize: 0xD8 }
  - { offsetInCU: 0x29934, offset: 0x440F0, size: 0x8, addend: 0x0, symName: __ZNSt3__16vectorINS0_IdNS_9allocatorIdEEEENS1_IS3_EEE21_ConstructTransactionC1B7v160006ERS5_m, symObjAddr: 0x1457C, symBinAddr: 0x100017B10, symSize: 0x3C }
  - { offsetInCU: 0x2997C, offset: 0x44138, size: 0x8, addend: 0x0, symName: __ZNSt3__116allocator_traitsINS_9allocatorINS_6vectorIdNS1_IdEEEEEEE9constructB7v160006IS4_JS4_EvEEvRS5_PT_DpOT0_, symObjAddr: 0x145B8, symBinAddr: 0x100017B4C, symSize: 0x34 }
  - { offsetInCU: 0x299D9, offset: 0x44195, size: 0x8, addend: 0x0, symName: __ZNSt3__16vectorINS0_IdNS_9allocatorIdEEEENS1_IS3_EEE21_ConstructTransactionD1B7v160006Ev, symObjAddr: 0x145EC, symBinAddr: 0x100017B80, symSize: 0x2C }
  - { offsetInCU: 0x29A02, offset: 0x441BE, size: 0x8, addend: 0x0, symName: __ZNSt3__16vectorINS0_IdNS_9allocatorIdEEEENS1_IS3_EEE21_ConstructTransactionC2B7v160006ERS5_m, symObjAddr: 0x14618, symBinAddr: 0x100017BAC, symSize: 0x4C }
  - { offsetInCU: 0x29A4C, offset: 0x44208, size: 0x8, addend: 0x0, symName: __ZNSt3__19allocatorINS_6vectorIdNS0_IdEEEEE9constructB7v160006IS3_JS3_EEEvPT_DpOT0_, symObjAddr: 0x14664, symBinAddr: 0x100017BF8, symSize: 0x30 }
  - { offsetInCU: 0x29AA3, offset: 0x4425F, size: 0x8, addend: 0x0, symName: __ZNSt3__16vectorIdNS_9allocatorIdEEEC1B7v160006EOS3_, symObjAddr: 0x14694, symBinAddr: 0x100017C28, symSize: 0x34 }
  - { offsetInCU: 0x29ADF, offset: 0x4429B, size: 0x8, addend: 0x0, symName: __ZNSt3__16vectorIdNS_9allocatorIdEEEC2B7v160006EOS3_, symObjAddr: 0x146C8, symBinAddr: 0x100017C5C, symSize: 0xD8 }
  - { offsetInCU: 0x29B1B, offset: 0x442D7, size: 0x8, addend: 0x0, symName: __ZNSt3__16vectorINS0_IdNS_9allocatorIdEEEENS1_IS3_EEE21_ConstructTransactionD2B7v160006Ev, symObjAddr: 0x147A0, symBinAddr: 0x100017D34, symSize: 0x20 }
  - { offsetInCU: 0x29B45, offset: 0x44301, size: 0x8, addend: 0x0, symName: __ZNKSt3__16vectorINS0_IdNS_9allocatorIdEEEENS1_IS3_EEE11__recommendB7v160006Em, symObjAddr: 0x147C0, symBinAddr: 0x100017D54, symSize: 0xB4 }
  - { offsetInCU: 0x29B9D, offset: 0x44359, size: 0x8, addend: 0x0, symName: __ZNSt3__114__split_bufferINS_6vectorIdNS_9allocatorIdEEEERNS2_IS4_EEEC1EmmS6_, symObjAddr: 0x14874, symBinAddr: 0x100017E08, symSize: 0x44 }
  - { offsetInCU: 0x29BF3, offset: 0x443AF, size: 0x8, addend: 0x0, symName: __ZNSt3__114__split_bufferINS_6vectorIdNS_9allocatorIdEEEERNS2_IS4_EEED1Ev, symObjAddr: 0x149D0, symBinAddr: 0x100017F64, symSize: 0x2C }
  - { offsetInCU: 0x29C1F, offset: 0x443DB, size: 0x8, addend: 0x0, symName: __ZNKSt3__16vectorINS0_IdNS_9allocatorIdEEEENS1_IS3_EEE8max_sizeEv, symObjAddr: 0x149FC, symBinAddr: 0x100017F90, symSize: 0x60 }
  - { offsetInCU: 0x29C47, offset: 0x44403, size: 0x8, addend: 0x0, symName: __ZNKSt3__16vectorINS0_IdNS_9allocatorIdEEEENS1_IS3_EEE20__throw_length_errorB7v160006Ev, symObjAddr: 0x14A5C, symBinAddr: 0x100017FF0, symSize: 0x1C }
  - { offsetInCU: 0x29C76, offset: 0x44432, size: 0x8, addend: 0x0, symName: __ZNSt3__116allocator_traitsINS_9allocatorINS_6vectorIdNS1_IdEEEEEEE8max_sizeB7v160006IS5_vEEmRKS5_, symObjAddr: 0x14A78, symBinAddr: 0x10001800C, symSize: 0x24 }
  - { offsetInCU: 0x29CA7, offset: 0x44463, size: 0x8, addend: 0x0, symName: __ZNKSt3__16vectorINS0_IdNS_9allocatorIdEEEENS1_IS3_EEE7__allocB7v160006Ev, symObjAddr: 0x14A9C, symBinAddr: 0x100018030, symSize: 0x28 }
  - { offsetInCU: 0x29CCD, offset: 0x44489, size: 0x8, addend: 0x0, symName: __ZNKSt3__19allocatorINS_6vectorIdNS0_IdEEEEE8max_sizeB7v160006Ev, symObjAddr: 0x14AC4, symBinAddr: 0x100018058, symSize: 0x18 }
  - { offsetInCU: 0x29CF3, offset: 0x444AF, size: 0x8, addend: 0x0, symName: __ZNKSt3__117__compressed_pairIPNS_6vectorIdNS_9allocatorIdEEEENS2_IS4_EEE6secondB7v160006Ev, symObjAddr: 0x14ADC, symBinAddr: 0x100018070, symSize: 0x24 }
  - { offsetInCU: 0x29D19, offset: 0x444D5, size: 0x8, addend: 0x0, symName: __ZNKSt3__122__compressed_pair_elemINS_9allocatorINS_6vectorIdNS1_IdEEEEEELi1ELb1EE5__getB7v160006Ev, symObjAddr: 0x14B00, symBinAddr: 0x100018094, symSize: 0x14 }
  - { offsetInCU: 0x29D3F, offset: 0x444FB, size: 0x8, addend: 0x0, symName: __ZNSt3__114__split_bufferINS_6vectorIdNS_9allocatorIdEEEERNS2_IS4_EEEC2EmmS6_, symObjAddr: 0x14B14, symBinAddr: 0x1000180A8, symSize: 0xE0 }
  - { offsetInCU: 0x29DB4, offset: 0x44570, size: 0x8, addend: 0x0, symName: __ZNSt3__117__compressed_pairIPNS_6vectorIdNS_9allocatorIdEEEERNS2_IS4_EEEC1B7v160006IDnS7_EEOT_OT0_, symObjAddr: 0x14BF4, symBinAddr: 0x100018188, symSize: 0x3C }
  - { offsetInCU: 0x29E0B, offset: 0x445C7, size: 0x8, addend: 0x0, symName: __ZNSt3__114__split_bufferINS_6vectorIdNS_9allocatorIdEEEERNS2_IS4_EEE7__allocB7v160006Ev, symObjAddr: 0x14C70, symBinAddr: 0x100018204, symSize: 0x28 }
  - { offsetInCU: 0x29E31, offset: 0x445ED, size: 0x8, addend: 0x0, symName: __ZNSt3__114__split_bufferINS_6vectorIdNS_9allocatorIdEEEERNS2_IS4_EEE9__end_capB7v160006Ev, symObjAddr: 0x14C98, symBinAddr: 0x10001822C, symSize: 0x28 }
  - { offsetInCU: 0x29E57, offset: 0x44613, size: 0x8, addend: 0x0, symName: __ZNSt3__117__compressed_pairIPNS_6vectorIdNS_9allocatorIdEEEERNS2_IS4_EEEC2B7v160006IDnS7_EEOT_OT0_, symObjAddr: 0x14CC0, symBinAddr: 0x100018254, symSize: 0x48 }
  - { offsetInCU: 0x29EAE, offset: 0x4466A, size: 0x8, addend: 0x0, symName: __ZNSt3__122__compressed_pair_elemIRNS_9allocatorINS_6vectorIdNS1_IdEEEEEELi1ELb0EEC2B7v160006IS6_vEEOT_, symObjAddr: 0x14D08, symBinAddr: 0x10001829C, symSize: 0x20 }
  - { offsetInCU: 0x29EF1, offset: 0x446AD, size: 0x8, addend: 0x0, symName: __ZNSt3__19allocatorINS_6vectorIdNS0_IdEEEEE8allocateB7v160006Em, symObjAddr: 0x14D28, symBinAddr: 0x1000182BC, symSize: 0x5C }
  - { offsetInCU: 0x29F25, offset: 0x446E1, size: 0x8, addend: 0x0, symName: __ZNSt3__117__compressed_pairIPNS_6vectorIdNS_9allocatorIdEEEERNS2_IS4_EEE6secondB7v160006Ev, symObjAddr: 0x14D84, symBinAddr: 0x100018318, symSize: 0x28 }
  - { offsetInCU: 0x29F4B, offset: 0x44707, size: 0x8, addend: 0x0, symName: __ZNSt3__122__compressed_pair_elemIRNS_9allocatorINS_6vectorIdNS1_IdEEEEEELi1ELb0EE5__getB7v160006Ev, symObjAddr: 0x14DAC, symBinAddr: 0x100018340, symSize: 0x18 }
  - { offsetInCU: 0x29F71, offset: 0x4472D, size: 0x8, addend: 0x0, symName: __ZNSt3__117__compressed_pairIPNS_6vectorIdNS_9allocatorIdEEEERNS2_IS4_EEE5firstB7v160006Ev, symObjAddr: 0x14DC4, symBinAddr: 0x100018358, symSize: 0x24 }
  - { offsetInCU: 0x29F97, offset: 0x44753, size: 0x8, addend: 0x0, symName: __ZNSt3__116reverse_iteratorIPNS_6vectorIdNS_9allocatorIdEEEEEC1B7v160006ES5_, symObjAddr: 0x14F14, symBinAddr: 0x1000184A8, symSize: 0x34 }
  - { offsetInCU: 0x29FCE, offset: 0x4478A, size: 0x8, addend: 0x0, symName: __ZNKSt3__116reverse_iteratorIPNS_6vectorIdNS_9allocatorIdEEEEE4baseB7v160006Ev, symObjAddr: 0x14F48, symBinAddr: 0x1000184DC, symSize: 0x18 }
  - { offsetInCU: 0x29FF4, offset: 0x447B0, size: 0x8, addend: 0x0, symName: __ZNKSt3__16vectorINS0_IdNS_9allocatorIdEEEENS1_IS3_EEE14__annotate_newB7v160006Em, symObjAddr: 0x14F9C, symBinAddr: 0x100018530, symSize: 0xC8 }
  - { offsetInCU: 0x2A02A, offset: 0x447E6, size: 0x8, addend: 0x0, symName: __ZNSt3__129_AllocatorDestroyRangeReverseINS_9allocatorINS_6vectorIdNS1_IdEEEEEENS_16reverse_iteratorIPS4_EEEC1B7v160006ERS5_RS8_SB_, symObjAddr: 0x150B0, symBinAddr: 0x100018644, symSize: 0x44 }
  - { offsetInCU: 0x2A083, offset: 0x4483F, size: 0x8, addend: 0x0, symName: __ZNKSt3__116reverse_iteratorIPNS_6vectorIdNS_9allocatorIdEEEEEdeB7v160006Ev, symObjAddr: 0x15160, symBinAddr: 0x1000186F4, symSize: 0x28 }
  - { offsetInCU: 0x2A0B8, offset: 0x44874, size: 0x8, addend: 0x0, symName: __ZNSt3__116reverse_iteratorIPNS_6vectorIdNS_9allocatorIdEEEEEppB7v160006Ev, symObjAddr: 0x15188, symBinAddr: 0x10001871C, symSize: 0x20 }
  - { offsetInCU: 0x2A0DE, offset: 0x4489A, size: 0x8, addend: 0x0, symName: __ZNSt3__128__exception_guard_exceptionsINS_29_AllocatorDestroyRangeReverseINS_9allocatorINS_6vectorIdNS2_IdEEEEEENS_16reverse_iteratorIPS5_EEEEE10__completeB7v160006Ev, symObjAddr: 0x151A8, symBinAddr: 0x10001873C, symSize: 0x1C }
  - { offsetInCU: 0x2A104, offset: 0x448C0, size: 0x8, addend: 0x0, symName: __ZNSt3__128__exception_guard_exceptionsINS_29_AllocatorDestroyRangeReverseINS_9allocatorINS_6vectorIdNS2_IdEEEEEENS_16reverse_iteratorIPS5_EEEEED1B7v160006Ev, symObjAddr: 0x151C4, symBinAddr: 0x100018758, symSize: 0x2C }
  - { offsetInCU: 0x2A12D, offset: 0x448E9, size: 0x8, addend: 0x0, symName: __ZNSt3__128__exception_guard_exceptionsINS_29_AllocatorDestroyRangeReverseINS_9allocatorINS_6vectorIdNS2_IdEEEEEENS_16reverse_iteratorIPS5_EEEEEC1B7v160006ESA_, symObjAddr: 0x151F0, symBinAddr: 0x100018784, symSize: 0x34 }
  - { offsetInCU: 0x2A165, offset: 0x44921, size: 0x8, addend: 0x0, symName: __ZNSt3__128__exception_guard_exceptionsINS_29_AllocatorDestroyRangeReverseINS_9allocatorINS_6vectorIdNS2_IdEEEEEENS_16reverse_iteratorIPS5_EEEEEC2B7v160006ESA_, symObjAddr: 0x15224, symBinAddr: 0x1000187B8, symSize: 0x30 }
  - { offsetInCU: 0x2A19E, offset: 0x4495A, size: 0x8, addend: 0x0, symName: __ZNSt3__129_AllocatorDestroyRangeReverseINS_9allocatorINS_6vectorIdNS1_IdEEEEEENS_16reverse_iteratorIPS4_EEEC2B7v160006ERS5_RS8_SB_, symObjAddr: 0x15254, symBinAddr: 0x1000187E8, symSize: 0x38 }
  - { offsetInCU: 0x2A1FC, offset: 0x449B8, size: 0x8, addend: 0x0, symName: __ZNSt3__119__to_address_helperINS_16reverse_iteratorIPNS_6vectorIdNS_9allocatorIdEEEEEEvE6__callB7v160006ERKS7_, symObjAddr: 0x1528C, symBinAddr: 0x100018820, symSize: 0x38 }
  - { offsetInCU: 0x2A220, offset: 0x449DC, size: 0x8, addend: 0x0, symName: __ZNKSt3__116reverse_iteratorIPNS_6vectorIdNS_9allocatorIdEEEEEptB7v160006Ev, symObjAddr: 0x152C4, symBinAddr: 0x100018858, symSize: 0x24 }
  - { offsetInCU: 0x2A246, offset: 0x44A02, size: 0x8, addend: 0x0, symName: __ZNSt3__128__exception_guard_exceptionsINS_29_AllocatorDestroyRangeReverseINS_9allocatorINS_6vectorIdNS2_IdEEEEEENS_16reverse_iteratorIPS5_EEEEED2B7v160006Ev, symObjAddr: 0x152E8, symBinAddr: 0x10001887C, symSize: 0x50 }
  - { offsetInCU: 0x2A26F, offset: 0x44A2B, size: 0x8, addend: 0x0, symName: __ZNKSt3__129_AllocatorDestroyRangeReverseINS_9allocatorINS_6vectorIdNS1_IdEEEEEENS_16reverse_iteratorIPS4_EEEclB7v160006Ev, symObjAddr: 0x15338, symBinAddr: 0x1000188CC, symSize: 0xB4 }
  - { offsetInCU: 0x2A296, offset: 0x44A52, size: 0x8, addend: 0x0, symName: __ZNSt3__116reverse_iteratorINS0_IPNS_6vectorIdNS_9allocatorIdEEEEEEEC1B7v160006ES6_, symObjAddr: 0x1545C, symBinAddr: 0x1000189F0, symSize: 0x3C }
  - { offsetInCU: 0x2A2CD, offset: 0x44A89, size: 0x8, addend: 0x0, symName: __ZNSt3__116reverse_iteratorINS0_IPNS_6vectorIdNS_9allocatorIdEEEEEEEppB7v160006Ev, symObjAddr: 0x1551C, symBinAddr: 0x100018AB0, symSize: 0x30 }
  - { offsetInCU: 0x2A2F3, offset: 0x44AAF, size: 0x8, addend: 0x0, symName: __ZNKSt3__116reverse_iteratorINS0_IPNS_6vectorIdNS_9allocatorIdEEEEEEE4baseB7v160006Ev, symObjAddr: 0x1554C, symBinAddr: 0x100018AE0, symSize: 0x24 }
  - { offsetInCU: 0x2A31D, offset: 0x44AD9, size: 0x8, addend: 0x0, symName: __ZNSt3__119__to_address_helperINS_16reverse_iteratorINS1_IPNS_6vectorIdNS_9allocatorIdEEEEEEEEvE6__callB7v160006ERKS8_, symObjAddr: 0x15570, symBinAddr: 0x100018B04, symSize: 0x38 }
  - { offsetInCU: 0x2A341, offset: 0x44AFD, size: 0x8, addend: 0x0, symName: __ZNKSt3__116reverse_iteratorINS0_IPNS_6vectorIdNS_9allocatorIdEEEEEEEptB7v160006Ev, symObjAddr: 0x155A8, symBinAddr: 0x100018B3C, symSize: 0x24 }
  - { offsetInCU: 0x2A367, offset: 0x44B23, size: 0x8, addend: 0x0, symName: __ZNKSt3__116reverse_iteratorINS0_IPNS_6vectorIdNS_9allocatorIdEEEEEEEdeB7v160006Ev, symObjAddr: 0x155CC, symBinAddr: 0x100018B60, symSize: 0x34 }
  - { offsetInCU: 0x2A39C, offset: 0x44B58, size: 0x8, addend: 0x0, symName: __ZNSt3__116reverse_iteratorIPNS_6vectorIdNS_9allocatorIdEEEEEmmB7v160006Ev, symObjAddr: 0x15600, symBinAddr: 0x100018B94, symSize: 0x20 }
  - { offsetInCU: 0x2A3C2, offset: 0x44B7E, size: 0x8, addend: 0x0, symName: __ZNSt3__116reverse_iteratorINS0_IPNS_6vectorIdNS_9allocatorIdEEEEEEEC2B7v160006ES6_, symObjAddr: 0x15620, symBinAddr: 0x100018BB4, symSize: 0x2C }
  - { offsetInCU: 0x2A3FA, offset: 0x44BB6, size: 0x8, addend: 0x0, symName: __ZNSt3__116reverse_iteratorIPNS_6vectorIdNS_9allocatorIdEEEEEC2B7v160006ES5_, symObjAddr: 0x1564C, symBinAddr: 0x100018BE0, symSize: 0x28 }
  - { offsetInCU: 0x2A432, offset: 0x44BEE, size: 0x8, addend: 0x0, symName: __ZNSt3__114__split_bufferINS_6vectorIdNS_9allocatorIdEEEERNS2_IS4_EEED2Ev, symObjAddr: 0x15674, symBinAddr: 0x100018C08, symSize: 0x8C }
  - { offsetInCU: 0x2A45E, offset: 0x44C1A, size: 0x8, addend: 0x0, symName: __ZNSt3__114__split_bufferINS_6vectorIdNS_9allocatorIdEEEERNS2_IS4_EEE5clearB7v160006Ev, symObjAddr: 0x15700, symBinAddr: 0x100018C94, symSize: 0x28 }
  - { offsetInCU: 0x2A484, offset: 0x44C40, size: 0x8, addend: 0x0, symName: __ZNKSt3__114__split_bufferINS_6vectorIdNS_9allocatorIdEEEERNS2_IS4_EEE8capacityB7v160006Ev, symObjAddr: 0x15728, symBinAddr: 0x100018CBC, symSize: 0x40 }
  - { offsetInCU: 0x2A4AA, offset: 0x44C66, size: 0x8, addend: 0x0, symName: __ZNSt3__114__split_bufferINS_6vectorIdNS_9allocatorIdEEEERNS2_IS4_EEE17__destruct_at_endB7v160006EPS4_, symObjAddr: 0x15768, symBinAddr: 0x100018CFC, symSize: 0x2C }
  - { offsetInCU: 0x2A4DE, offset: 0x44C9A, size: 0x8, addend: 0x0, symName: __ZNSt3__114__split_bufferINS_6vectorIdNS_9allocatorIdEEEERNS2_IS4_EEE17__destruct_at_endB7v160006EPS4_NS_17integral_constantIbLb0EEE, symObjAddr: 0x15794, symBinAddr: 0x100018D28, symSize: 0x80 }
  - { offsetInCU: 0x2A51F, offset: 0x44CDB, size: 0x8, addend: 0x0, symName: __ZNKSt3__114__split_bufferINS_6vectorIdNS_9allocatorIdEEEERNS2_IS4_EEE9__end_capB7v160006Ev, symObjAddr: 0x15814, symBinAddr: 0x100018DA8, symSize: 0x28 }
  - { offsetInCU: 0x2A545, offset: 0x44D01, size: 0x8, addend: 0x0, symName: __ZNKSt3__117__compressed_pairIPNS_6vectorIdNS_9allocatorIdEEEERNS2_IS4_EEE5firstB7v160006Ev, symObjAddr: 0x1583C, symBinAddr: 0x100018DD0, symSize: 0x24 }
  - { offsetInCU: 0x2A56B, offset: 0x44D27, size: 0x8, addend: 0x0, symName: __ZNSt3__16vectorIdNS_9allocatorIdEEE22__construct_one_at_endB7v160006IJRKdEEEvDpOT_, symObjAddr: 0x15860, symBinAddr: 0x100018DF4, symSize: 0x90 }
  - { offsetInCU: 0x2A5BD, offset: 0x44D79, size: 0x8, addend: 0x0, symName: __ZNSt3__16vectorIdNS_9allocatorIdEEE21__push_back_slow_pathIRKdEEvOT_, symObjAddr: 0x158F0, symBinAddr: 0x100018E84, symSize: 0xD8 }
  - { offsetInCU: 0x2A61E, offset: 0x44DDA, size: 0x8, addend: 0x0, symName: __ZNKSt3__16vectorIdNS_9allocatorIdEEE11__recommendB7v160006Em, symObjAddr: 0x159C8, symBinAddr: 0x100018F5C, symSize: 0xB4 }
  - { offsetInCU: 0x2A676, offset: 0x44E32, size: 0x8, addend: 0x0, symName: __ZNSt3__114__split_bufferIdRNS_9allocatorIdEEEC1EmmS3_, symObjAddr: 0x15A7C, symBinAddr: 0x100019010, symSize: 0x44 }
  - { offsetInCU: 0x2A6CC, offset: 0x44E88, size: 0x8, addend: 0x0, symName: __ZNSt3__114__split_bufferIdRNS_9allocatorIdEEED1Ev, symObjAddr: 0x15BD8, symBinAddr: 0x10001916C, symSize: 0x2C }
  - { offsetInCU: 0x2A6F8, offset: 0x44EB4, size: 0x8, addend: 0x0, symName: __ZNSt3__114__split_bufferIdRNS_9allocatorIdEEEC2EmmS3_, symObjAddr: 0x15C04, symBinAddr: 0x100019198, symSize: 0xD4 }
  - { offsetInCU: 0x2A76D, offset: 0x44F29, size: 0x8, addend: 0x0, symName: __ZNSt3__117__compressed_pairIPdRNS_9allocatorIdEEEC1B7v160006IDnS4_EEOT_OT0_, symObjAddr: 0x15CD8, symBinAddr: 0x10001926C, symSize: 0x3C }
  - { offsetInCU: 0x2A7C4, offset: 0x44F80, size: 0x8, addend: 0x0, symName: __ZNSt3__114__split_bufferIdRNS_9allocatorIdEEE7__allocB7v160006Ev, symObjAddr: 0x15D14, symBinAddr: 0x1000192A8, symSize: 0x28 }
  - { offsetInCU: 0x2A7EA, offset: 0x44FA6, size: 0x8, addend: 0x0, symName: __ZNSt3__114__split_bufferIdRNS_9allocatorIdEEE9__end_capB7v160006Ev, symObjAddr: 0x15D3C, symBinAddr: 0x1000192D0, symSize: 0x28 }
  - { offsetInCU: 0x2A810, offset: 0x44FCC, size: 0x8, addend: 0x0, symName: __ZNSt3__117__compressed_pairIPdRNS_9allocatorIdEEEC2B7v160006IDnS4_EEOT_OT0_, symObjAddr: 0x15D64, symBinAddr: 0x1000192F8, symSize: 0x48 }
  - { offsetInCU: 0x2A867, offset: 0x45023, size: 0x8, addend: 0x0, symName: __ZNSt3__122__compressed_pair_elemIRNS_9allocatorIdEELi1ELb0EEC2B7v160006IS3_vEEOT_, symObjAddr: 0x15DAC, symBinAddr: 0x100019340, symSize: 0x20 }
  - { offsetInCU: 0x2A8AA, offset: 0x45066, size: 0x8, addend: 0x0, symName: __ZNSt3__117__compressed_pairIPdRNS_9allocatorIdEEE6secondB7v160006Ev, symObjAddr: 0x15DCC, symBinAddr: 0x100019360, symSize: 0x28 }
  - { offsetInCU: 0x2A8D0, offset: 0x4508C, size: 0x8, addend: 0x0, symName: __ZNSt3__122__compressed_pair_elemIRNS_9allocatorIdEELi1ELb0EE5__getB7v160006Ev, symObjAddr: 0x15DF4, symBinAddr: 0x100019388, symSize: 0x18 }
  - { offsetInCU: 0x2A8F6, offset: 0x450B2, size: 0x8, addend: 0x0, symName: __ZNSt3__117__compressed_pairIPdRNS_9allocatorIdEEE5firstB7v160006Ev, symObjAddr: 0x15E0C, symBinAddr: 0x1000193A0, symSize: 0x24 }
  - { offsetInCU: 0x2A935, offset: 0x450F1, size: 0x8, addend: 0x0, symName: __ZNKSt3__111__move_loopINS_17_ClassicAlgPolicyEEclB7v160006INS_16reverse_iteratorIPdEES6_S6_EENS_4pairIT_T1_EES8_T0_S9_, symObjAddr: 0x161D4, symBinAddr: 0x100019768, symSize: 0xA0 }
  - { offsetInCU: 0x2A9A4, offset: 0x45160, size: 0x8, addend: 0x0, symName: __ZNSt3__18_IterOpsINS_17_ClassicAlgPolicyEE11__iter_moveB7v160006IRNS_16reverse_iteratorIPdEEEENS_9enable_ifIXsr12is_referenceIDTdeclsr3stdE7declvalIRT_EEEEE5valueEDTclsr3stdE4movedeclsr3stdE7declvalISA_EEEEE4typeEOS9_, symObjAddr: 0x163C0, symBinAddr: 0x100019954, symSize: 0x28 }
  - { offsetInCU: 0x2A9D1, offset: 0x4518D, size: 0x8, addend: 0x0, symName: __ZNSt3__18_IterOpsINS_17_ClassicAlgPolicyEE25__validate_iter_referenceB7v160006IRNS_16reverse_iteratorIPdEEEEvv, symObjAddr: 0x163E8, symBinAddr: 0x10001997C, symSize: 0x4 }
  - { offsetInCU: 0x2A9EF, offset: 0x451AB, size: 0x8, addend: 0x0, symName: __ZNSt3__118__unwrap_iter_implINS_16reverse_iteratorIPdEELb0EE8__unwrapB7v160006ES3_, symObjAddr: 0x163EC, symBinAddr: 0x100019980, symSize: 0x24 }
  - { offsetInCU: 0x2AA17, offset: 0x451D3, size: 0x8, addend: 0x0, symName: __ZNSt3__14pairINS_16reverse_iteratorIPdEES3_EC1B7v160006IS3_S3_LPv0EEEOT_OT0_, symObjAddr: 0x16410, symBinAddr: 0x1000199A4, symSize: 0x3C }
  - { offsetInCU: 0x2AA75, offset: 0x45231, size: 0x8, addend: 0x0, symName: __ZNSt3__14pairINS_16reverse_iteratorIPdEES3_EC2B7v160006IS3_S3_LPv0EEEOT_OT0_, symObjAddr: 0x1644C, symBinAddr: 0x1000199E0, symSize: 0x34 }
  - { offsetInCU: 0x2AAD4, offset: 0x45290, size: 0x8, addend: 0x0, symName: __ZNSt3__118__unwrap_iter_implINS_16reverse_iteratorIPdEELb0EE8__rewrapB7v160006ES3_S3_, symObjAddr: 0x16480, symBinAddr: 0x100019A14, symSize: 0x2C }
  - { offsetInCU: 0x2AB02, offset: 0x452BE, size: 0x8, addend: 0x0, symName: __ZNSt3__114__split_bufferIdRNS_9allocatorIdEEED2Ev, symObjAddr: 0x164AC, symBinAddr: 0x100019A40, symSize: 0x8C }
  - { offsetInCU: 0x2AB2E, offset: 0x452EA, size: 0x8, addend: 0x0, symName: __ZNSt3__114__split_bufferIdRNS_9allocatorIdEEE5clearB7v160006Ev, symObjAddr: 0x16538, symBinAddr: 0x100019ACC, symSize: 0x28 }
  - { offsetInCU: 0x2AB54, offset: 0x45310, size: 0x8, addend: 0x0, symName: __ZNKSt3__114__split_bufferIdRNS_9allocatorIdEEE8capacityB7v160006Ev, symObjAddr: 0x16560, symBinAddr: 0x100019AF4, symSize: 0x40 }
  - { offsetInCU: 0x2AB7A, offset: 0x45336, size: 0x8, addend: 0x0, symName: __ZNSt3__114__split_bufferIdRNS_9allocatorIdEEE17__destruct_at_endB7v160006EPd, symObjAddr: 0x165A0, symBinAddr: 0x100019B34, symSize: 0x2C }
  - { offsetInCU: 0x2ABAE, offset: 0x4536A, size: 0x8, addend: 0x0, symName: __ZNSt3__114__split_bufferIdRNS_9allocatorIdEEE17__destruct_at_endB7v160006EPdNS_17integral_constantIbLb0EEE, symObjAddr: 0x165CC, symBinAddr: 0x100019B60, symSize: 0x80 }
  - { offsetInCU: 0x2ABEF, offset: 0x453AB, size: 0x8, addend: 0x0, symName: __ZNKSt3__114__split_bufferIdRNS_9allocatorIdEEE9__end_capB7v160006Ev, symObjAddr: 0x1664C, symBinAddr: 0x100019BE0, symSize: 0x28 }
  - { offsetInCU: 0x2AC15, offset: 0x453D1, size: 0x8, addend: 0x0, symName: __ZNKSt3__117__compressed_pairIPdRNS_9allocatorIdEEE5firstB7v160006Ev, symObjAddr: 0x16674, symBinAddr: 0x100019C08, symSize: 0x24 }
...
